MPASM 03.50 Released                             T18F4320.ASM   1-26-2005  18:13:38         PAGE  1


LOC  OBJECT CODE     LINE SOURCE TEXT
  VALUE

                      00001 
                      00002 ; PicBasic Pro Compiler 2.44, (c) 1998, 2003 microEngineering Labs, Inc. All Rights Reserved. 
  00000001            00003 _USED                   EQU     1
                      00004 
                      00005         INCLUDE "C:\PROGRA~1\PBP\18F4320.INC"
                      00001 ;****************************************************************
                      00002 ;*  18F4320.INC                                                 *
                      00003 ;*                                                              *
                      00004 ;*  By        : Leonard Zerman, Jeff Schmoyer                   *
                      00005 ;*  Notice    : Copyright (c) 2002 microEngineering Labs, Inc.  *
                      00006 ;*              All Rights Reserved                             *
                      00007 ;*  Date      : 11/15/02                                        *
                      00008 ;*  Version   : 2.43                                            *
                      00009 ;*  Notes     :                                                 *
                      00010 ;****************************************************************
                      00017         LIST
                      00018         LIST p = 18F4320, r = dec, w = -302, f = inhx32
                      00019         INCLUDE "P18F4320.INC"  ; MPASM  Header
                      00004         LIST
                      00005 ; P18F4320.INC  Standard Header File, Version 0.1   Microchip Technology, Inc.
                      00968         LIST
300000 F1FF           00020         __CONFIG    _CONFIG1H, _XT_OSC_1H
                      00021         __CONFIG    _CONFIG2L, _BOR_ON_2L & _BORV_20_2L & _PWRT_ON_2L
300002 EFFE           00022         __CONFIG    _CONFIG2H, _WDT_ON_2H & _WDTPS_128_2H
300004 FFFF           00023         __CONFIG    _CONFIG3H, _MCLRE_ON_3H & _CCP2MX_ON_3H
300006 FFFB           00024         __CONFIG    _CONFIG4L, _STVR_ON_4L & _LVP_OFF_4L & _DEBUG_OFF_4L
                      00027         LIST
  00F00000            00028 EEPROM_START    EQU     0F00000h
  00000008            00029 BLOCK_SIZE      EQU     8
                      00030 
                      00006 
                      00007 
                      00008 ; Define statements.
                      00009 #define         OSC              20
                      00010 
  00000000            00011 RAM_START                       EQU     00000h
  000001FF            00012 RAM_END                         EQU     001FFh
  00000002            00013 RAM_BANKS                       EQU     00002h
  00000080            00014 BANK0_START                     EQU     00080h
  000000FF            00015 BANK0_END                       EQU     000FFh
  00000100            00016 BANK1_START                     EQU     00100h
  000001FF            00017 BANK1_END                       EQU     001FFh
  00000000            00018 BANKA_START                     EQU     00000h
  0000007F            00019 BANKA_END                       EQU     0007Fh
                      00020 
  00000000            00021 R0                              EQU     RAM_START + 000h
  00000002            00022 R1                              EQU     RAM_START + 002h
  00000004            00023 R2                              EQU     RAM_START + 004h
  00000006            00024 R3                              EQU     RAM_START + 006h
  00000008            00025 R4                              EQU     RAM_START + 008h
  0000000A            00026 R5                              EQU     RAM_START + 00Ah
  0000000C            00027 R6                              EQU     RAM_START + 00Ch
  0000000E            00028 R7                              EQU     RAM_START + 00Eh
MPASM 03.50 Released                             T18F4320.ASM   1-26-2005  18:13:38         PAGE  2


LOC  OBJECT CODE     LINE SOURCE TEXT
  VALUE

  00000010            00029 R8                              EQU     RAM_START + 010h
  00000012            00030 FLAGS                           EQU     RAM_START + 012h
  00000013            00031 GOP                             EQU     RAM_START + 013h
  00000014            00032 RM1                             EQU     RAM_START + 014h
  00000015            00033 RM2                             EQU     RAM_START + 015h
  00000016            00034 RR1                             EQU     RAM_START + 016h
  00000017            00035 RR2                             EQU     RAM_START + 017h
  00000018            00036 RS1                             EQU     RAM_START + 018h
  00000019            00037 RS2                             EQU     RAM_START + 019h
  0000001A            00038 _CONTA                          EQU     RAM_START + 01Ah
  0000001B            00039 _TEMP                           EQU     RAM_START + 01Bh
  00000F81            00040 _PORTL                          EQU      PORTB
  00000F82            00041 _PORTH                          EQU      PORTC
  00000F93            00042 _TRISL                          EQU      TRISB
  00000F94            00043 _TRISH                          EQU      TRISC
                      00044 #define _PORTA_0                 PORTA, 000h
                      00045 #define _PORTA_1                 PORTA, 001h
                      00046 #define _PORTA_2                 PORTA, 002h
                      00047 #define _PORTA_3                 PORTA, 003h
                      00048 #define _PORTA_5                 PORTA, 005h
                      00049 #define _PORTB_0                 PORTB, 000h
                      00050 #define _PORTB_1                 PORTB, 001h
                      00051 #define _PORTB_2                 PORTB, 002h
                      00052 #define _PORTB_3                 PORTB, 003h
                      00053 #define _PORTB_4                 PORTB, 004h
                      00054 #define _PORTB_5                 PORTB, 005h
                      00055 #define _PORTB_6                 PORTB, 006h
                      00056 #define _PORTB_7                 PORTB, 007h
                      00057 #define _PORTC_0                 PORTC, 000h
                      00058 #define _PORTC_1                 PORTC, 001h
                      00059 #define _PORTC_2                 PORTC, 002h
                      00060 #define _PORTC_3                 PORTC, 003h
                      00061 #define _PORTC_4                 PORTC, 004h
                      00062 #define _PORTC_5                 PORTC, 005h
                      00063 #define _PORTC_6                 PORTC, 006h
                      00064 #define _PORTC_7                 PORTC, 007h
                      00065 #define _PORTD_0                 PORTD, 000h
                      00066 #define _PORTD_1                 PORTD, 001h
                      00067 #define _PORTD_2                 PORTD, 002h
                      00068 #define _PORTD_3                 PORTD, 003h
                      00069 #define _PORTD_4                 PORTD, 004h
                      00070 #define _PORTD_5                 PORTD, 005h
                      00071 #define _PORTD_6                 PORTD, 006h
                      00072 #define _PORTD_7                 PORTD, 007h
                      00073 #define _PORTE_0                 PORTE, 000h
                      00074 #define _PORTE_1                 PORTE, 001h
                      00075 #define _PORTE_2                 PORTE, 002h
                      00076         INCLUDE "T18F4320.MAC"
                      00001 
                      00078         LIST
                      00077         INCLUDE "C:\PROGRA~1\PBP\PBPPIC18.LIB"
                      00001 ;******************************************************************
                      00002 ;*  PBPPIC18.LIB                                                  *
MPASM 03.50 Released                             T18F4320.ASM   1-26-2005  18:13:38         PAGE  3


LOC  OBJECT CODE     LINE SOURCE TEXT
  VALUE

                      00003 ;*                                                                *
                      00004 ;*  By        : Leonard Zerman, Jeff Schmoyer                     *
                      00005 ;*  Notice    : Copyright (c) 2003 microEngineering Labs, Inc.    *
                      00006 ;*              All Rights Reserved                               *
                      00007 ;*  Date      : 07/08/03                                          *
                      00008 ;*  Version   : 2.44                                              *
                      00009 ;*  Notes     :                                                   *
                      00010 ;******************************************************************
                      00091   LIST
                      00092 ; Oscillator is 20MHz
                      01171   LIST
000000                01172     ORG 0                       ; Reset vector at 0
                      01181   LIST
000000 EF2B F000      01182         goto    INIT            ; Finish initialization
                      06251   LIST
000004 6A03           06252 PAUSE   clrf    R1 + 1
000006 6E02           06253 PAUSEL  movwf   R1
000008 0EFF           06254 pauseloop movlw -1              ; 1 (9)
00000A 2602           06255         addwf   R1, F           ; 1
00000C A0D8           06256         btfss   STATUS, C       ; 1 / 2
00000E 2603           06257         addwf   R1 + 1, F       ; 1 / 0
000010 A0D8           06258         btfss   STATUS, C       ; 2
000012 EF28 F000      06259         goto    DUNN
000016 0E03           06260         movlw   (PAUSE_DELAY) >> 8      ; 1
000018 6E01           06261         movwf   R0 + 1          ; 1
00001A 0EE6           06262         movlw   low (PAUSE_DELAY)       ; 1
00001C D802           06263         rcall   PAUSEUSL        ; -2 (PAUSEUSL gives you 2 less than you ask for)
00001E D7F4           06264         bra     pauseloop       ; 2
                      06478   LIST
000020 6A01           06479 PAUSEUS clrf    R0 + 1          ; 1
000022 0FFC           06480 PAUSEUSL addlw  -4              ; 1 Subtract overhead
000024 6E00           06481         movwf   R0              ; 1
000026 1E01           06482         comf    R0 + 1, F       ; 1
000028 A0D8           06483         btfss   STATUS, C       ; 1 / 2
00002A D006           06484         bra     pauseush        ; 2 / 0
00002C 0EFF           06485 pauseusloop0 movlw -1           ; 1
00002E 0000           06486 pauseusloop nop                 ; 1
000030 2600           06487         addwf   R0, F           ; 1
000032 B0D8           06488         btfsc   STATUS, C       ; 1 / 2
000034 D7FC           06489         bra     pauseusloop     ; 2 / 0
000036 2600           06490         addwf   R0, F           ; 1 Do an extra countdown
                      06491 pauseush CLRWDT?NOP             ; 1 Keep Watchdog clear
                          M     ifndef NO_CLRWDT
000038 0004               M         clrwdt
                          M     else
                          M         nop
                          M     endif
00003A 3E01           06492         incfsz  R0 + 1, F       ; 1 / 2
00003C D7F7           06493         bra     pauseusloop0    ; 2 / 0
00003E 0012           06494         return                  ; 2 + 3 (call + setup)
                      06952   LIST
000040 90D8           06953 shiftlloop bcf  STATUS, C       ; Shift in 0 bits
                      06954         rlf     R0, F           ; Shift left once
MPASM 03.50 Released                             T18F4320.ASM   1-26-2005  18:13:38         PAGE  4


LOC  OBJECT CODE     LINE SOURCE TEXT
  VALUE

000042 3600               M         rlcf    R0,    F
                      06955         rlf     R0 + 1, F
000044 3601               M         rlcf    R0 + 1, F
000046 0FFF           06956 SHIFTL  addlw   -1
000048 E2FB           06957         bc      shiftlloop      ; Done?
00004A 5000           06958         movf    R0, W           ; Move low part of result to W
00004C EF28 F000      06959         goto    DUNN
                      07651   LIST
000050 0100           07652 DUNN    movlb   0               ; 1 Reset banks to 0
                      07653 DUNN3   CLRWDT?NOP              ; 1 Hit Watchdog timer
                          M     ifndef NO_CLRWDT
000052 0004               M         clrwdt
                          M     else
                          M         nop
                          M     endif
000054 0012           07654 DUNNRET return                  ; 2 Done
                      07667   LIST
000056                07668 INIT
                      07700   LIST
000056                07701 main
                      00078 
                      00079         MOVE?CB 000h, TRISA
                          M         CHK?RP  TRISA
                          M     if (((TRISA) > BANKA_END) & ((TRISA) < 0f80h))
                          M       if (((TRISA) & 0f00h) != (PREV_BANK << 8))
                          M         movlb   (TRISA) >> 8
                          M PREV_BANK = (TRISA) >> 8
                          M       endif
                          M     endif
                          M     if (low (000h) == 0)
000056 6A92               M         clrf    TRISA
                          M     else
                          M         movlw   low (000h)
                          M         movwf   TRISA
                          M     endif
                      00080         MOVE?CB 000h, TRISB
                          M         CHK?RP  TRISB
                          M     if (((TRISB) > BANKA_END) & ((TRISB) < 0f80h))
                          M       if (((TRISB) & 0f00h) != (PREV_BANK << 8))
                          M         movlb   (TRISB) >> 8
                          M PREV_BANK = (TRISB) >> 8
                          M       endif
                          M     endif
                          M     if (low (000h) == 0)
000058 6A93               M         clrf    TRISB
                          M     else
                          M         movlw   low (000h)
                          M         movwf   TRISB
                          M     endif
                      00081         MOVE?CB 000h, TRISC
                          M         CHK?RP  TRISC
                          M     if (((TRISC) > BANKA_END) & ((TRISC) < 0f80h))
                          M       if (((TRISC) & 0f00h) != (PREV_BANK << 8))
MPASM 03.50 Released                             T18F4320.ASM   1-26-2005  18:13:38         PAGE  5


LOC  OBJECT CODE     LINE SOURCE TEXT
  VALUE

                          M         movlb   (TRISC) >> 8
                          M PREV_BANK = (TRISC) >> 8
                          M       endif
                          M     endif
                          M     if (low (000h) == 0)
00005A 6A94               M         clrf    TRISC
                          M     else
                          M         movlw   low (000h)
                          M         movwf   TRISC
                          M     endif
                      00082         MOVE?CB 000h, TRISD
                          M         CHK?RP  TRISD
                          M     if (((TRISD) > BANKA_END) & ((TRISD) < 0f80h))
                          M       if (((TRISD) & 0f00h) != (PREV_BANK << 8))
                          M         movlb   (TRISD) >> 8
                          M PREV_BANK = (TRISD) >> 8
                          M       endif
                          M     endif
                          M     if (low (000h) == 0)
00005C 6A95               M         clrf    TRISD
                          M     else
                          M         movlw   low (000h)
                          M         movwf   TRISD
                          M     endif
                      00083         MOVE?CB 000h, TRISE
                          M         CHK?RP  TRISE
                          M     if (((TRISE) > BANKA_END) & ((TRISE) < 0f80h))
                          M       if (((TRISE) & 0f00h) != (PREV_BANK << 8))
                          M         movlb   (TRISE) >> 8
                          M PREV_BANK = (TRISE) >> 8
                          M       endif
                          M     endif
                          M     if (low (000h) == 0)
00005E 6A96               M         clrf    TRISE
                          M     else
                          M         movlw   low (000h)
                          M         movwf   TRISE
                          M     endif
                      00084         MOVE?CT 000h, _PORTA_0
                          M         CHK?RP  PORTA
                          M     if (((PORTA) > BANKA_END) & ((PORTA) < 0f80h))
                          M       if (((PORTA) & 0f00h) != (PREV_BANK << 8))
                          M         movlb   (PORTA) >> 8
                          M PREV_BANK = (PORTA) >> 8
                          M       endif
                          M     endif
                          M     if (((000h) & 1) == 1)
                          M         bsf     PORTA,  000h
                          M     else
000060 9080               M         bcf     PORTA,  000h
                          M     endif
                      00085         MOVE?CT 000h, _PORTA_1
                          M         CHK?RP  PORTA
MPASM 03.50 Released                             T18F4320.ASM   1-26-2005  18:13:38         PAGE  6


LOC  OBJECT CODE     LINE SOURCE TEXT
  VALUE

                          M     if (((PORTA) > BANKA_END) & ((PORTA) < 0f80h))
                          M       if (((PORTA) & 0f00h) != (PREV_BANK << 8))
                          M         movlb   (PORTA) >> 8
                          M PREV_BANK = (PORTA) >> 8
                          M       endif
                          M     endif
                          M     if (((000h) & 1) == 1)
                          M         bsf     PORTA,  001h
                          M     else
000062 9280               M         bcf     PORTA,  001h
                          M     endif
                      00086         MOVE?CT 000h, _PORTA_2
                          M         CHK?RP  PORTA
                          M     if (((PORTA) > BANKA_END) & ((PORTA) < 0f80h))
                          M       if (((PORTA) & 0f00h) != (PREV_BANK << 8))
                          M         movlb   (PORTA) >> 8
                          M PREV_BANK = (PORTA) >> 8
                          M       endif
                          M     endif
                          M     if (((000h) & 1) == 1)
                          M         bsf     PORTA,  002h
                          M     else
000064 9480               M         bcf     PORTA,  002h
                          M     endif
                      00087         MOVE?CT 000h, _PORTA_3
                          M         CHK?RP  PORTA
                          M     if (((PORTA) > BANKA_END) & ((PORTA) < 0f80h))
                          M       if (((PORTA) & 0f00h) != (PREV_BANK << 8))
                          M         movlb   (PORTA) >> 8
                          M PREV_BANK = (PORTA) >> 8
                          M       endif
                          M     endif
                          M     if (((000h) & 1) == 1)
                          M         bsf     PORTA,  003h
                          M     else
000066 9680               M         bcf     PORTA,  003h
                          M     endif
                      00088         MOVE?CT 000h, _PORTA_5
                          M         CHK?RP  PORTA
                          M     if (((PORTA) > BANKA_END) & ((PORTA) < 0f80h))
                          M       if (((PORTA) & 0f00h) != (PREV_BANK << 8))
                          M         movlb   (PORTA) >> 8
                          M PREV_BANK = (PORTA) >> 8
                          M       endif
                          M     endif
                          M     if (((000h) & 1) == 1)
                          M         bsf     PORTA,  005h
                          M     else
000068 9A80               M         bcf     PORTA,  005h
                          M     endif
                      00089         MOVE?CT 000h, _PORTB_0
                          M         CHK?RP  PORTB
                          M     if (((PORTB) > BANKA_END) & ((PORTB) < 0f80h))
MPASM 03.50 Released                             T18F4320.ASM   1-26-2005  18:13:38         PAGE  7


LOC  OBJECT CODE     LINE SOURCE TEXT
  VALUE

                          M       if (((PORTB) & 0f00h) != (PREV_BANK << 8))
                          M         movlb   (PORTB) >> 8
                          M PREV_BANK = (PORTB) >> 8
                          M       endif
                          M     endif
                          M     if (((000h) & 1) == 1)
                          M         bsf     PORTB,  000h
                          M     else
00006A 9081               M         bcf     PORTB,  000h
                          M     endif
                      00090         MOVE?CT 000h, _PORTB_1
                          M         CHK?RP  PORTB
                          M     if (((PORTB) > BANKA_END) & ((PORTB) < 0f80h))
                          M       if (((PORTB) & 0f00h) != (PREV_BANK << 8))
                          M         movlb   (PORTB) >> 8
                          M PREV_BANK = (PORTB) >> 8
                          M       endif
                          M     endif
                          M     if (((000h) & 1) == 1)
                          M         bsf     PORTB,  001h
                          M     else
00006C 9281               M         bcf     PORTB,  001h
                          M     endif
                      00091         MOVE?CT 000h, _PORTB_2
                          M         CHK?RP  PORTB
                          M     if (((PORTB) > BANKA_END) & ((PORTB) < 0f80h))
                          M       if (((PORTB) & 0f00h) != (PREV_BANK << 8))
                          M         movlb   (PORTB) >> 8
                          M PREV_BANK = (PORTB) >> 8
                          M       endif
                          M     endif
                          M     if (((000h) & 1) == 1)
                          M         bsf     PORTB,  002h
                          M     else
00006E 9481               M         bcf     PORTB,  002h
                          M     endif
                      00092         MOVE?CT 000h, _PORTB_3
                          M         CHK?RP  PORTB
                          M     if (((PORTB) > BANKA_END) & ((PORTB) < 0f80h))
                          M       if (((PORTB) & 0f00h) != (PREV_BANK << 8))
                          M         movlb   (PORTB) >> 8
                          M PREV_BANK = (PORTB) >> 8
                          M       endif
                          M     endif
                          M     if (((000h) & 1) == 1)
                          M         bsf     PORTB,  003h
                          M     else
000070 9681               M         bcf     PORTB,  003h
                          M     endif
                      00093         MOVE?CT 000h, _PORTB_4
                          M         CHK?RP  PORTB
                          M     if (((PORTB) > BANKA_END) & ((PORTB) < 0f80h))
                          M       if (((PORTB) & 0f00h) != (PREV_BANK << 8))
MPASM 03.50 Released                             T18F4320.ASM   1-26-2005  18:13:38         PAGE  8


LOC  OBJECT CODE     LINE SOURCE TEXT
  VALUE

                          M         movlb   (PORTB) >> 8
                          M PREV_BANK = (PORTB) >> 8
                          M       endif
                          M     endif
                          M     if (((000h) & 1) == 1)
                          M         bsf     PORTB,  004h
                          M     else
000072 9881               M         bcf     PORTB,  004h
                          M     endif
                      00094         MOVE?CT 000h, _PORTB_5
                          M         CHK?RP  PORTB
                          M     if (((PORTB) > BANKA_END) & ((PORTB) < 0f80h))
                          M       if (((PORTB) & 0f00h) != (PREV_BANK << 8))
                          M         movlb   (PORTB) >> 8
                          M PREV_BANK = (PORTB) >> 8
                          M       endif
                          M     endif
                          M     if (((000h) & 1) == 1)
                          M         bsf     PORTB,  005h
                          M     else
000074 9A81               M         bcf     PORTB,  005h
                          M     endif
                      00095         MOVE?CT 000h, _PORTB_6
                          M         CHK?RP  PORTB
                          M     if (((PORTB) > BANKA_END) & ((PORTB) < 0f80h))
                          M       if (((PORTB) & 0f00h) != (PREV_BANK << 8))
                          M         movlb   (PORTB) >> 8
                          M PREV_BANK = (PORTB) >> 8
                          M       endif
                          M     endif
                          M     if (((000h) & 1) == 1)
                          M         bsf     PORTB,  006h
                          M     else
000076 9C81               M         bcf     PORTB,  006h
                          M     endif
                      00096         MOVE?CT 000h, _PORTB_7
                          M         CHK?RP  PORTB
                          M     if (((PORTB) > BANKA_END) & ((PORTB) < 0f80h))
                          M       if (((PORTB) & 0f00h) != (PREV_BANK << 8))
                          M         movlb   (PORTB) >> 8
                          M PREV_BANK = (PORTB) >> 8
                          M       endif
                          M     endif
                          M     if (((000h) & 1) == 1)
                          M         bsf     PORTB,  007h
                          M     else
000078 9E81               M         bcf     PORTB,  007h
                          M     endif
                      00097         MOVE?CT 000h, _PORTC_0
                          M         CHK?RP  PORTC
                          M     if (((PORTC) > BANKA_END) & ((PORTC) < 0f80h))
                          M       if (((PORTC) & 0f00h) != (PREV_BANK << 8))
                          M         movlb   (PORTC) >> 8
MPASM 03.50 Released                             T18F4320.ASM   1-26-2005  18:13:38         PAGE  9


LOC  OBJECT CODE     LINE SOURCE TEXT
  VALUE

                          M PREV_BANK = (PORTC) >> 8
                          M       endif
                          M     endif
                          M     if (((000h) & 1) == 1)
                          M         bsf     PORTC,  000h
                          M     else
00007A 9082               M         bcf     PORTC,  000h
                          M     endif
                      00098         MOVE?CT 000h, _PORTC_1
                          M         CHK?RP  PORTC
                          M     if (((PORTC) > BANKA_END) & ((PORTC) < 0f80h))
                          M       if (((PORTC) & 0f00h) != (PREV_BANK << 8))
                          M         movlb   (PORTC) >> 8
                          M PREV_BANK = (PORTC) >> 8
                          M       endif
                          M     endif
                          M     if (((000h) & 1) == 1)
                          M         bsf     PORTC,  001h
                          M     else
00007C 9282               M         bcf     PORTC,  001h
                          M     endif
                      00099         MOVE?CT 000h, _PORTC_2
                          M         CHK?RP  PORTC
                          M     if (((PORTC) > BANKA_END) & ((PORTC) < 0f80h))
                          M       if (((PORTC) & 0f00h) != (PREV_BANK << 8))
                          M         movlb   (PORTC) >> 8
                          M PREV_BANK = (PORTC) >> 8
                          M       endif
                          M     endif
                          M     if (((000h) & 1) == 1)
                          M         bsf     PORTC,  002h
                          M     else
00007E 9482               M         bcf     PORTC,  002h
                          M     endif
                      00100         MOVE?CT 000h, _PORTC_3
                          M         CHK?RP  PORTC
                          M     if (((PORTC) > BANKA_END) & ((PORTC) < 0f80h))
                          M       if (((PORTC) & 0f00h) != (PREV_BANK << 8))
                          M         movlb   (PORTC) >> 8
                          M PREV_BANK = (PORTC) >> 8
                          M       endif
                          M     endif
                          M     if (((000h) & 1) == 1)
                          M         bsf     PORTC,  003h
                          M     else
000080 9682               M         bcf     PORTC,  003h
                          M     endif
                      00101         MOVE?CT 000h, _PORTC_4
                          M         CHK?RP  PORTC
                          M     if (((PORTC) > BANKA_END) & ((PORTC) < 0f80h))
                          M       if (((PORTC) & 0f00h) != (PREV_BANK << 8))
                          M         movlb   (PORTC) >> 8
                          M PREV_BANK = (PORTC) >> 8
MPASM 03.50 Released                             T18F4320.ASM   1-26-2005  18:13:38         PAGE 10


LOC  OBJECT CODE     LINE SOURCE TEXT
  VALUE

                          M       endif
                          M     endif
                          M     if (((000h) & 1) == 1)
                          M         bsf     PORTC,  004h
                          M     else
000082 9882               M         bcf     PORTC,  004h
                          M     endif
                      00102         MOVE?CT 000h, _PORTC_5
                          M         CHK?RP  PORTC
                          M     if (((PORTC) > BANKA_END) & ((PORTC) < 0f80h))
                          M       if (((PORTC) & 0f00h) != (PREV_BANK << 8))
                          M         movlb   (PORTC) >> 8
                          M PREV_BANK = (PORTC) >> 8
                          M       endif
                          M     endif
                          M     if (((000h) & 1) == 1)
                          M         bsf     PORTC,  005h
                          M     else
000084 9A82               M         bcf     PORTC,  005h
                          M     endif
                      00103         MOVE?CT 000h, _PORTC_6
                          M         CHK?RP  PORTC
                          M     if (((PORTC) > BANKA_END) & ((PORTC) < 0f80h))
                          M       if (((PORTC) & 0f00h) != (PREV_BANK << 8))
                          M         movlb   (PORTC) >> 8
                          M PREV_BANK = (PORTC) >> 8
                          M       endif
                          M     endif
                          M     if (((000h) & 1) == 1)
                          M         bsf     PORTC,  006h
                          M     else
000086 9C82               M         bcf     PORTC,  006h
                          M     endif
                      00104         MOVE?CT 000h, _PORTC_7
                          M         CHK?RP  PORTC
                          M     if (((PORTC) > BANKA_END) & ((PORTC) < 0f80h))
                          M       if (((PORTC) & 0f00h) != (PREV_BANK << 8))
                          M         movlb   (PORTC) >> 8
                          M PREV_BANK = (PORTC) >> 8
                          M       endif
                          M     endif
                          M     if (((000h) & 1) == 1)
                          M         bsf     PORTC,  007h
                          M     else
000088 9E82               M         bcf     PORTC,  007h
                          M     endif
                      00105         MOVE?CT 000h, _PORTD_0
                          M         CHK?RP  PORTD
                          M     if (((PORTD) > BANKA_END) & ((PORTD) < 0f80h))
                          M       if (((PORTD) & 0f00h) != (PREV_BANK << 8))
                          M         movlb   (PORTD) >> 8
                          M PREV_BANK = (PORTD) >> 8
                          M       endif
MPASM 03.50 Released                             T18F4320.ASM   1-26-2005  18:13:38         PAGE 11


LOC  OBJECT CODE     LINE SOURCE TEXT
  VALUE

                          M     endif
                          M     if (((000h) & 1) == 1)
                          M         bsf     PORTD,  000h
                          M     else
00008A 9083               M         bcf     PORTD,  000h
                          M     endif
                      00106         MOVE?CT 000h, _PORTD_1
                          M         CHK?RP  PORTD
                          M     if (((PORTD) > BANKA_END) & ((PORTD) < 0f80h))
                          M       if (((PORTD) & 0f00h) != (PREV_BANK << 8))
                          M         movlb   (PORTD) >> 8
                          M PREV_BANK = (PORTD) >> 8
                          M       endif
                          M     endif
                          M     if (((000h) & 1) == 1)
                          M         bsf     PORTD,  001h
                          M     else
00008C 9283               M         bcf     PORTD,  001h
                          M     endif
                      00107         MOVE?CT 000h, _PORTD_2
                          M         CHK?RP  PORTD
                          M     if (((PORTD) > BANKA_END) & ((PORTD) < 0f80h))
                          M       if (((PORTD) & 0f00h) != (PREV_BANK << 8))
                          M         movlb   (PORTD) >> 8
                          M PREV_BANK = (PORTD) >> 8
                          M       endif
                          M     endif
                          M     if (((000h) & 1) == 1)
                          M         bsf     PORTD,  002h
                          M     else
00008E 9483               M         bcf     PORTD,  002h
                          M     endif
                      00108         MOVE?CT 000h, _PORTD_3
                          M         CHK?RP  PORTD
                          M     if (((PORTD) > BANKA_END) & ((PORTD) < 0f80h))
                          M       if (((PORTD) & 0f00h) != (PREV_BANK << 8))
                          M         movlb   (PORTD) >> 8
                          M PREV_BANK = (PORTD) >> 8
                          M       endif
                          M     endif
                          M     if (((000h) & 1) == 1)
                          M         bsf     PORTD,  003h
                          M     else
000090 9683               M         bcf     PORTD,  003h
                          M     endif
                      00109         MOVE?CT 000h, _PORTD_4
                          M         CHK?RP  PORTD
                          M     if (((PORTD) > BANKA_END) & ((PORTD) < 0f80h))
                          M       if (((PORTD) & 0f00h) != (PREV_BANK << 8))
                          M         movlb   (PORTD) >> 8
                          M PREV_BANK = (PORTD) >> 8
                          M       endif
                          M     endif
MPASM 03.50 Released                             T18F4320.ASM   1-26-2005  18:13:38         PAGE 12


LOC  OBJECT CODE     LINE SOURCE TEXT
  VALUE

                          M     if (((000h) & 1) == 1)
                          M         bsf     PORTD,  004h
                          M     else
000092 9883               M         bcf     PORTD,  004h
                          M     endif
                      00110         MOVE?CT 000h, _PORTD_5
                          M         CHK?RP  PORTD
                          M     if (((PORTD) > BANKA_END) & ((PORTD) < 0f80h))
                          M       if (((PORTD) & 0f00h) != (PREV_BANK << 8))
                          M         movlb   (PORTD) >> 8
                          M PREV_BANK = (PORTD) >> 8
                          M       endif
                          M     endif
                          M     if (((000h) & 1) == 1)
                          M         bsf     PORTD,  005h
                          M     else
000094 9A83               M         bcf     PORTD,  005h
                          M     endif
                      00111         MOVE?CT 000h, _PORTD_6
                          M         CHK?RP  PORTD
                          M     if (((PORTD) > BANKA_END) & ((PORTD) < 0f80h))
                          M       if (((PORTD) & 0f00h) != (PREV_BANK << 8))
                          M         movlb   (PORTD) >> 8
                          M PREV_BANK = (PORTD) >> 8
                          M       endif
                          M     endif
                          M     if (((000h) & 1) == 1)
                          M         bsf     PORTD,  006h
                          M     else
000096 9C83               M         bcf     PORTD,  006h
                          M     endif
                      00112         MOVE?CT 000h, _PORTD_7
                          M         CHK?RP  PORTD
                          M     if (((PORTD) > BANKA_END) & ((PORTD) < 0f80h))
                          M       if (((PORTD) & 0f00h) != (PREV_BANK << 8))
                          M         movlb   (PORTD) >> 8
                          M PREV_BANK = (PORTD) >> 8
                          M       endif
                          M     endif
                          M     if (((000h) & 1) == 1)
                          M         bsf     PORTD,  007h
                          M     else
000098 9E83               M         bcf     PORTD,  007h
                          M     endif
                      00113         MOVE?CT 000h, _PORTE_0
                          M         CHK?RP  PORTE
                          M     if (((PORTE) > BANKA_END) & ((PORTE) < 0f80h))
                          M       if (((PORTE) & 0f00h) != (PREV_BANK << 8))
                          M         movlb   (PORTE) >> 8
                          M PREV_BANK = (PORTE) >> 8
                          M       endif
                          M     endif
                          M     if (((000h) & 1) == 1)
MPASM 03.50 Released                             T18F4320.ASM   1-26-2005  18:13:38         PAGE 13


LOC  OBJECT CODE     LINE SOURCE TEXT
  VALUE

                          M         bsf     PORTE,  000h
                          M     else
00009A 9084               M         bcf     PORTE,  000h
                          M     endif
                      00114         MOVE?CT 000h, _PORTE_1
                          M         CHK?RP  PORTE
                          M     if (((PORTE) > BANKA_END) & ((PORTE) < 0f80h))
                          M       if (((PORTE) & 0f00h) != (PREV_BANK << 8))
                          M         movlb   (PORTE) >> 8
                          M PREV_BANK = (PORTE) >> 8
                          M       endif
                          M     endif
                          M     if (((000h) & 1) == 1)
                          M         bsf     PORTE,  001h
                          M     else
00009C 9284               M         bcf     PORTE,  001h
                          M     endif
                      00115         MOVE?CT 000h, _PORTE_2
                          M         CHK?RP  PORTE
                          M     if (((PORTE) > BANKA_END) & ((PORTE) < 0f80h))
                          M       if (((PORTE) & 0f00h) != (PREV_BANK << 8))
                          M         movlb   (PORTE) >> 8
                          M PREV_BANK = (PORTE) >> 8
                          M       endif
                          M     endif
                          M     if (((000h) & 1) == 1)
                          M         bsf     PORTE,  002h
                          M     else
00009E 9484               M         bcf     PORTE,  002h
                          M     endif
                      00116 
                      00117         LABEL?L _LOOP   
                          M         RST?RP
                          M     if (PREV_BANK != 0)
                          M         movlb   0
                          M PREV_BANK = 0
                          M     endif
                          M     ifdef PM_USED
                          M         LALL
                          M _LOOP
                          M         XALL
                          M     else
0000A0                    M _LOOP
                          M     endif
                      00118         MOVE?CB 001h, _TEMP
                          M         CHK?RP  _TEMP
                          M     if (((_TEMP) > BANKA_END) & ((_TEMP) < 0f80h))
                          M       if (((_TEMP) & 0f00h) != (PREV_BANK << 8))
                          M         movlb   (_TEMP) >> 8
                          M PREV_BANK = (_TEMP) >> 8
                          M       endif
                          M     endif
                          M     if (low (001h) == 0)
MPASM 03.50 Released                             T18F4320.ASM   1-26-2005  18:13:38         PAGE 14


LOC  OBJECT CODE     LINE SOURCE TEXT
  VALUE

                          M         clrf    _TEMP
                          M     else
0000A0 0E01               M         movlw   low (001h)
0000A2 6E1B               M         movwf   _TEMP
                          M     endif
                      00119         MOVE?CB 000h, _CONTA
                          M         CHK?RP  _CONTA
                          M     if (((_CONTA) > BANKA_END) & ((_CONTA) < 0f80h))
                          M       if (((_CONTA) & 0f00h) != (PREV_BANK << 8))
                          M         movlb   (_CONTA) >> 8
                          M PREV_BANK = (_CONTA) >> 8
                          M       endif
                          M     endif
                          M     if (low (000h) == 0)
0000A4 6A1A               M         clrf    _CONTA
                          M     else
                          M         movlw   low (000h)
                          M         movwf   _CONTA
                          M     endif
                      00120         LABEL?L L00001  
                          M         RST?RP
                          M     if (PREV_BANK != 0)
                          M         movlb   0
                          M PREV_BANK = 0
                          M     endif
                          M     ifdef PM_USED
                          M         LALL
                          M L00001
                          M         XALL
                          M     else
0000A6                    M L00001
                          M     endif
                      00121         CMPGT?BCL       _CONTA, 003h, L00002
                          M     if (003h < 0ffh)
                          M         CLRWDT?
                          M     ifndef NO_CLRWDT
0000A6 0004               M         clrwdt
                          M     endif
                          M         MOVE?CA 003h + 1
0000A8 0E04               M         movlw   low (003h + 1)
                          M         CHK?RP  _CONTA
                          M     if (((_CONTA) > BANKA_END) & ((_CONTA) < 0f80h))
                          M       if (((_CONTA) & 0f00h) != (PREV_BANK << 8))
                          M         movlb   (_CONTA) >> 8
                          M PREV_BANK = (_CONTA) >> 8
                          M       endif
                          M     endif
0000AA 5C1A               M         subwf   _CONTA, W
                          M         BIT?GOTO 1, STATUS, C, L00002
                          M     if ($ == (L00002))
                          M         CLRWDT?
                          M     endif
                          M 
MPASM 03.50 Released                             T18F4320.ASM   1-26-2005  18:13:38         PAGE 15


LOC  OBJECT CODE     LINE SOURCE TEXT
  VALUE

                          M     if (((STATUS) > BANKA_END) & ((STATUS) < 0f80h))
                          M         bcf     STATUS, OV
                          M         CHK?RP  STATUS
                          M       if (1      == 0)
                          M         btfss   STATUS, C
                          M       else
                          M         btfsc   STATUS, C
                          M       endif
                          M         bsf     STATUS, OV
                          M         RST?RP
                          M       if ((L00002) < 1)
                          M         btfsc   STATUS, OV
                          M         goto    L00002
                          M       else
                          M         if ((L00002) > $)
                          M         btfsc   STATUS, OV
                          M         goto    L00002
                          M         else
                          M           if ((L00002) < ($ - 7fh))
                          M         btfsc   STATUS, OV
                          M         goto    L00002
                          M           else
                          M         bov     L00002
                          M           endif
                          M         endif
                          M       endif
                          M     else
                          M         RST?RP
                          M     if (PREV_BANK != 0)
                          M         movlb   0
                          M PREV_BANK = 0
                          M     endif
                          M       if (1      == 0)
                          M         btfss   STATUS, C
                          M       else
0000AC B0D8               M         btfsc   STATUS, C
                          M       endif
                          M       if ((L00002) < 1)
                          M         goto    L00002
                          M       else
                          M         if ((L00002) > $)
0000AE EF64 F000          M         goto    L00002
                          M         else
                          M           if ((L00002) < ($ - 3ffh))
                          M         goto    L00002
                          M           else
                          M         bra     L00002
                          M           endif
                          M         endif
                          M       endif
                          M     endif
                          M     endif
                      00122         MOVE?BB _TEMP, PORTA
MPASM 03.50 Released                             T18F4320.ASM   1-26-2005  18:13:38         PAGE 16


LOC  OBJECT CODE     LINE SOURCE TEXT
  VALUE

0000B2 C01B FF80          M         movff   _TEMP, PORTA
                      00123         PAUSE?C 007D0h
                          M     if (high (007D0h) == 0)
                          M         MOVE?CA 007D0h
                          M         L?CALL  PAUSE
                          M     else
                          M         MOVE?CB high (007D0h), R1 + 1
                          M         CHK?RP  R1 + 1
                          M     if (((R1 + 1) > BANKA_END) & ((R1 + 1) < 0f80h))
                          M       if (((R1 + 1) & 0f00h) != (PREV_BANK << 8))
                          M         movlb   (R1 + 1) >> 8
                          M PREV_BANK = (R1 + 1) >> 8
                          M       endif
                          M     endif
                          M     if (low (high (007D0h)) == 0)
                          M         clrf    R1 + 1
                          M     else
0000B6 0E07               M         movlw   low (high (007D0h))
0000B8 6E03               M         movwf   R1 + 1
                          M     endif
                          M         MOVE?CA low (007D0h)
0000BA 0ED0               M         movlw   low (low (007D0h))
                          M         L?CALL  PAUSEL
                          M         RST?RP
                          M     if (PREV_BANK != 0)
                          M         movlb   0
                          M PREV_BANK = 0
                          M     endif
                          M 
                          M     if ((PAUSEL) < 1)
                          M         call    PAUSEL
                          M     else
                          M       if ((PAUSEL) > $)
                          M         call    PAUSEL
                          M       else
                          M         if ((PAUSEL) < ($ - 3ffh))
                          M         call    PAUSEL
                          M         else
0000BC DFA4               M         rcall   PAUSEL
                          M         endif
                          M       endif
                          M     endif
                          M     endif
                      00124         SHIFTL?BCB      _TEMP, 001h, _TEMP
                          M     if (001h == 1)
0000BE 90D8               M         bcf     STATUS, C
                          M       if (_TEMP == _TEMP)
                          M         CHK?RP  _TEMP
                          M     if (((_TEMP) > BANKA_END) & ((_TEMP) < 0f80h))
                          M       if (((_TEMP) & 0f00h) != (PREV_BANK << 8))
                          M         movlb   (_TEMP) >> 8
                          M PREV_BANK = (_TEMP) >> 8
                          M       endif
MPASM 03.50 Released                             T18F4320.ASM   1-26-2005  18:13:38         PAGE 17


LOC  OBJECT CODE     LINE SOURCE TEXT
  VALUE

                          M     endif
                          M         rlf     _TEMP, F
0000C0 361B               M         rlcf    _TEMP, F
                          M       else
                          M         CHK?RP  _TEMP
                          M         rlf     _TEMP, W
                          M         MOVE?AB _TEMP
                          M       endif
                          M     else
                          M         MOVE?BW _TEMP, R0
                          M         MOVE?CA 001h
                          M         L?CALL  SHIFTL
                          M         MOVE?AB _TEMP
                          M     endif
                      00125         NEXT?BCL        _CONTA, 001h, L00001
                          M     if (001h == 1)
                          M         CHK?RP  _CONTA
                          M     if (((_CONTA) > BANKA_END) & ((_CONTA) < 0f80h))
                          M       if (((_CONTA) & 0f00h) != (PREV_BANK << 8))
                          M         movlb   (_CONTA) >> 8
                          M PREV_BANK = (_CONTA) >> 8
                          M       endif
                          M     endif
0000C2 2A1A               M         incf    _CONTA, F
                          M         BIT?GOTO 0, STATUS, Z, L00001
                          M     if ($ == (L00001))
                          M         CLRWDT?
                          M     endif
                          M 
                          M     if (((STATUS) > BANKA_END) & ((STATUS) < 0f80h))
                          M         bcf     STATUS, OV
                          M         CHK?RP  STATUS
                          M       if (0      == 0)
                          M         btfss   STATUS, Z
                          M       else
                          M         btfsc   STATUS, Z
                          M       endif
                          M         bsf     STATUS, OV
                          M         RST?RP
                          M       if ((L00001) < 1)
                          M         btfsc   STATUS, OV
                          M         goto    L00001
                          M       else
                          M         if ((L00001) > $)
                          M         btfsc   STATUS, OV
                          M         goto    L00001
                          M         else
                          M           if ((L00001) < ($ - 7fh))
                          M         btfsc   STATUS, OV
                          M         goto    L00001
                          M           else
                          M         bov     L00001
                          M           endif
MPASM 03.50 Released                             T18F4320.ASM   1-26-2005  18:13:38         PAGE 18


LOC  OBJECT CODE     LINE SOURCE TEXT
  VALUE

                          M         endif
                          M       endif
                          M     else
                          M         RST?RP
                          M     if (PREV_BANK != 0)
                          M         movlb   0
                          M PREV_BANK = 0
                          M     endif
                          M       if (0      == 0)
0000C4 A4D8               M         btfss   STATUS, Z
                          M       else
                          M         btfsc   STATUS, Z
                          M       endif
                          M       if ((L00001) < 1)
                          M         goto    L00001
                          M       else
                          M         if ((L00001) > $)
                          M         goto    L00001
                          M         else
                          M           if ((L00001) < ($ - 3ffh))
                          M         goto    L00001
                          M           else
0000C6 D7EF               M         bra     L00001
                          M           endif
                          M         endif
                          M       endif
                          M     endif
                          M     else
                          M       if (001h <= 255)
                          M         movlw   001h
                          M         CHK?RP  _CONTA
                          M         addwf   _CONTA, F
                          M         BIT?GOTO 0, STATUS, C, L00001
                          M       endif
                          M     endif
                      00126         LABEL?L L00002  
                          M         RST?RP
                          M     if (PREV_BANK != 0)
                          M         movlb   0
                          M PREV_BANK = 0
                          M     endif
                          M     ifdef PM_USED
                          M         LALL
                          M L00002
                          M         XALL
                          M     else
0000C8                    M L00002
                          M     endif
                      00127         MOVE?CT 000h, _PORTA_3
                          M         CHK?RP  PORTA
                          M     if (((PORTA) > BANKA_END) & ((PORTA) < 0f80h))
                          M       if (((PORTA) & 0f00h) != (PREV_BANK << 8))
                          M         movlb   (PORTA) >> 8
MPASM 03.50 Released                             T18F4320.ASM   1-26-2005  18:13:38         PAGE 19


LOC  OBJECT CODE     LINE SOURCE TEXT
  VALUE

                          M PREV_BANK = (PORTA) >> 8
                          M       endif
                          M     endif
                          M     if (((000h) & 1) == 1)
                          M         bsf     PORTA,  003h
                          M     else
0000C8 9680               M         bcf     PORTA,  003h
                          M     endif
                      00128         MOVE?CT 001h, _PORTA_5
                          M         CHK?RP  PORTA
                          M     if (((PORTA) > BANKA_END) & ((PORTA) < 0f80h))
                          M       if (((PORTA) & 0f00h) != (PREV_BANK << 8))
                          M         movlb   (PORTA) >> 8
                          M PREV_BANK = (PORTA) >> 8
                          M       endif
                          M     endif
                          M     if (((001h) & 1) == 1)
0000CA 8A80               M         bsf     PORTA,  005h
                          M     else
                          M         bcf     PORTA,  005h
                          M     endif
                      00129         PAUSE?C 007D0h
                          M     if (high (007D0h) == 0)
                          M         MOVE?CA 007D0h
                          M         L?CALL  PAUSE
                          M     else
                          M         MOVE?CB high (007D0h), R1 + 1
                          M         CHK?RP  R1 + 1
                          M     if (((R1 + 1) > BANKA_END) & ((R1 + 1) < 0f80h))
                          M       if (((R1 + 1) & 0f00h) != (PREV_BANK << 8))
                          M         movlb   (R1 + 1) >> 8
                          M PREV_BANK = (R1 + 1) >> 8
                          M       endif
                          M     endif
                          M     if (low (high (007D0h)) == 0)
                          M         clrf    R1 + 1
                          M     else
0000CC 0E07               M         movlw   low (high (007D0h))
0000CE 6E03               M         movwf   R1 + 1
                          M     endif
                          M         MOVE?CA low (007D0h)
0000D0 0ED0               M         movlw   low (low (007D0h))
                          M         L?CALL  PAUSEL
                          M         RST?RP
                          M     if (PREV_BANK != 0)
                          M         movlb   0
                          M PREV_BANK = 0
                          M     endif
                          M 
                          M     if ((PAUSEL) < 1)
                          M         call    PAUSEL
                          M     else
                          M       if ((PAUSEL) > $)
MPASM 03.50 Released                             T18F4320.ASM   1-26-2005  18:13:38         PAGE 20


LOC  OBJECT CODE     LINE SOURCE TEXT
  VALUE

                          M         call    PAUSEL
                          M       else
                          M         if ((PAUSEL) < ($ - 3ffh))
                          M         call    PAUSEL
                          M         else
0000D2 DF99               M         rcall   PAUSEL
                          M         endif
                          M       endif
                          M     endif
                          M     endif
                      00130         MOVE?CT 000h, _PORTA_5
                          M         CHK?RP  PORTA
                          M     if (((PORTA) > BANKA_END) & ((PORTA) < 0f80h))
                          M       if (((PORTA) & 0f00h) != (PREV_BANK << 8))
                          M         movlb   (PORTA) >> 8
                          M PREV_BANK = (PORTA) >> 8
                          M       endif
                          M     endif
                          M     if (((000h) & 1) == 1)
                          M         bsf     PORTA,  005h
                          M     else
0000D4 9A80               M         bcf     PORTA,  005h
                          M     endif
                      00131         PAUSE?C 007D0h
                          M     if (high (007D0h) == 0)
                          M         MOVE?CA 007D0h
                          M         L?CALL  PAUSE
                          M     else
                          M         MOVE?CB high (007D0h), R1 + 1
                          M         CHK?RP  R1 + 1
                          M     if (((R1 + 1) > BANKA_END) & ((R1 + 1) < 0f80h))
                          M       if (((R1 + 1) & 0f00h) != (PREV_BANK << 8))
                          M         movlb   (R1 + 1) >> 8
                          M PREV_BANK = (R1 + 1) >> 8
                          M       endif
                          M     endif
                          M     if (low (high (007D0h)) == 0)
                          M         clrf    R1 + 1
                          M     else
0000D6 0E07               M         movlw   low (high (007D0h))
0000D8 6E03               M         movwf   R1 + 1
                          M     endif
                          M         MOVE?CA low (007D0h)
0000DA 0ED0               M         movlw   low (low (007D0h))
                          M         L?CALL  PAUSEL
                          M         RST?RP
                          M     if (PREV_BANK != 0)
                          M         movlb   0
                          M PREV_BANK = 0
                          M     endif
                          M 
                          M     if ((PAUSEL) < 1)
                          M         call    PAUSEL
MPASM 03.50 Released                             T18F4320.ASM   1-26-2005  18:13:38         PAGE 21


LOC  OBJECT CODE     LINE SOURCE TEXT
  VALUE

                          M     else
                          M       if ((PAUSEL) > $)
                          M         call    PAUSEL
                          M       else
                          M         if ((PAUSEL) < ($ - 3ffh))
                          M         call    PAUSEL
                          M         else
0000DC DF94               M         rcall   PAUSEL
                          M         endif
                          M       endif
                          M     endif
                          M     endif
                      00132         MOVE?CB 001h, _TEMP
                          M         CHK?RP  _TEMP
                          M     if (((_TEMP) > BANKA_END) & ((_TEMP) < 0f80h))
                          M       if (((_TEMP) & 0f00h) != (PREV_BANK << 8))
                          M         movlb   (_TEMP) >> 8
                          M PREV_BANK = (_TEMP) >> 8
                          M       endif
                          M     endif
                          M     if (low (001h) == 0)
                          M         clrf    _TEMP
                          M     else
0000DE 0E01               M         movlw   low (001h)
0000E0 6E1B               M         movwf   _TEMP
                          M     endif
                      00133         MOVE?CB 000h, _CONTA
                          M         CHK?RP  _CONTA
                          M     if (((_CONTA) > BANKA_END) & ((_CONTA) < 0f80h))
                          M       if (((_CONTA) & 0f00h) != (PREV_BANK << 8))
                          M         movlb   (_CONTA) >> 8
                          M PREV_BANK = (_CONTA) >> 8
                          M       endif
                          M     endif
                          M     if (low (000h) == 0)
0000E2 6A1A               M         clrf    _CONTA
                          M     else
                          M         movlw   low (000h)
                          M         movwf   _CONTA
                          M     endif
                      00134         LABEL?L L00003  
                          M         RST?RP
                          M     if (PREV_BANK != 0)
                          M         movlb   0
                          M PREV_BANK = 0
                          M     endif
                          M     ifdef PM_USED
                          M         LALL
                          M L00003
                          M         XALL
                          M     else
0000E4                    M L00003
                          M     endif
MPASM 03.50 Released                             T18F4320.ASM   1-26-2005  18:13:38         PAGE 22


LOC  OBJECT CODE     LINE SOURCE TEXT
  VALUE

                      00135         CMPGT?BCL       _CONTA, 007h, L00004
                          M     if (007h < 0ffh)
                          M         CLRWDT?
                          M     ifndef NO_CLRWDT
0000E4 0004               M         clrwdt
                          M     endif
                          M         MOVE?CA 007h + 1
0000E6 0E08               M         movlw   low (007h + 1)
                          M         CHK?RP  _CONTA
                          M     if (((_CONTA) > BANKA_END) & ((_CONTA) < 0f80h))
                          M       if (((_CONTA) & 0f00h) != (PREV_BANK << 8))
                          M         movlb   (_CONTA) >> 8
                          M PREV_BANK = (_CONTA) >> 8
                          M       endif
                          M     endif
0000E8 5C1A               M         subwf   _CONTA, W
                          M         BIT?GOTO 1, STATUS, C, L00004
                          M     if ($ == (L00004))
                          M         CLRWDT?
                          M     endif
                          M 
                          M     if (((STATUS) > BANKA_END) & ((STATUS) < 0f80h))
                          M         bcf     STATUS, OV
                          M         CHK?RP  STATUS
                          M       if (1      == 0)
                          M         btfss   STATUS, C
                          M       else
                          M         btfsc   STATUS, C
                          M       endif
                          M         bsf     STATUS, OV
                          M         RST?RP
                          M       if ((L00004) < 1)
                          M         btfsc   STATUS, OV
                          M         goto    L00004
                          M       else
                          M         if ((L00004) > $)
                          M         btfsc   STATUS, OV
                          M         goto    L00004
                          M         else
                          M           if ((L00004) < ($ - 7fh))
                          M         btfsc   STATUS, OV
                          M         goto    L00004
                          M           else
                          M         bov     L00004
                          M           endif
                          M         endif
                          M       endif
                          M     else
                          M         RST?RP
                          M     if (PREV_BANK != 0)
                          M         movlb   0
                          M PREV_BANK = 0
                          M     endif
MPASM 03.50 Released                             T18F4320.ASM   1-26-2005  18:13:38         PAGE 23


LOC  OBJECT CODE     LINE SOURCE TEXT
  VALUE

                          M       if (1      == 0)
                          M         btfss   STATUS, C
                          M       else
0000EA B0D8               M         btfsc   STATUS, C
                          M       endif
                          M       if ((L00004) < 1)
                          M         goto    L00004
                          M       else
                          M         if ((L00004) > $)
0000EC EF83 F000          M         goto    L00004
                          M         else
                          M           if ((L00004) < ($ - 3ffh))
                          M         goto    L00004
                          M           else
                          M         bra     L00004
                          M           endif
                          M         endif
                          M       endif
                          M     endif
                          M     endif
                      00136         MOVE?BB _TEMP, PORTB
0000F0 C01B FF81          M         movff   _TEMP, PORTB
                      00137         PAUSE?C 007D0h
                          M     if (high (007D0h) == 0)
                          M         MOVE?CA 007D0h
                          M         L?CALL  PAUSE
                          M     else
                          M         MOVE?CB high (007D0h), R1 + 1
                          M         CHK?RP  R1 + 1
                          M     if (((R1 + 1) > BANKA_END) & ((R1 + 1) < 0f80h))
                          M       if (((R1 + 1) & 0f00h) != (PREV_BANK << 8))
                          M         movlb   (R1 + 1) >> 8
                          M PREV_BANK = (R1 + 1) >> 8
                          M       endif
                          M     endif
                          M     if (low (high (007D0h)) == 0)
                          M         clrf    R1 + 1
                          M     else
0000F4 0E07               M         movlw   low (high (007D0h))
0000F6 6E03               M         movwf   R1 + 1
                          M     endif
                          M         MOVE?CA low (007D0h)
0000F8 0ED0               M         movlw   low (low (007D0h))
                          M         L?CALL  PAUSEL
                          M         RST?RP
                          M     if (PREV_BANK != 0)
                          M         movlb   0
                          M PREV_BANK = 0
                          M     endif
                          M 
                          M     if ((PAUSEL) < 1)
                          M         call    PAUSEL
                          M     else
MPASM 03.50 Released                             T18F4320.ASM   1-26-2005  18:13:38         PAGE 24


LOC  OBJECT CODE     LINE SOURCE TEXT
  VALUE

                          M       if ((PAUSEL) > $)
                          M         call    PAUSEL
                          M       else
                          M         if ((PAUSEL) < ($ - 3ffh))
                          M         call    PAUSEL
                          M         else
0000FA DF85               M         rcall   PAUSEL
                          M         endif
                          M       endif
                          M     endif
                          M     endif
                      00138         SHIFTL?BCB      _TEMP, 001h, _TEMP
                          M     if (001h == 1)
0000FC 90D8               M         bcf     STATUS, C
                          M       if (_TEMP == _TEMP)
                          M         CHK?RP  _TEMP
                          M     if (((_TEMP) > BANKA_END) & ((_TEMP) < 0f80h))
                          M       if (((_TEMP) & 0f00h) != (PREV_BANK << 8))
                          M         movlb   (_TEMP) >> 8
                          M PREV_BANK = (_TEMP) >> 8
                          M       endif
                          M     endif
                          M         rlf     _TEMP, F
0000FE 361B               M         rlcf    _TEMP, F
                          M       else
                          M         CHK?RP  _TEMP
                          M         rlf     _TEMP, W
                          M         MOVE?AB _TEMP
                          M       endif
                          M     else
                          M         MOVE?BW _TEMP, R0
                          M         MOVE?CA 001h
                          M         L?CALL  SHIFTL
                          M         MOVE?AB _TEMP
                          M     endif
                      00139         NEXT?BCL        _CONTA, 001h, L00003
                          M     if (001h == 1)
                          M         CHK?RP  _CONTA
                          M     if (((_CONTA) > BANKA_END) & ((_CONTA) < 0f80h))
                          M       if (((_CONTA) & 0f00h) != (PREV_BANK << 8))
                          M         movlb   (_CONTA) >> 8
                          M PREV_BANK = (_CONTA) >> 8
                          M       endif
                          M     endif
000100 2A1A               M         incf    _CONTA, F
                          M         BIT?GOTO 0, STATUS, Z, L00003
                          M     if ($ == (L00003))
                          M         CLRWDT?
                          M     endif
                          M 
                          M     if (((STATUS) > BANKA_END) & ((STATUS) < 0f80h))
                          M         bcf     STATUS, OV
                          M         CHK?RP  STATUS
MPASM 03.50 Released                             T18F4320.ASM   1-26-2005  18:13:38         PAGE 25


LOC  OBJECT CODE     LINE SOURCE TEXT
  VALUE

                          M       if (0      == 0)
                          M         btfss   STATUS, Z
                          M       else
                          M         btfsc   STATUS, Z
                          M       endif
                          M         bsf     STATUS, OV
                          M         RST?RP
                          M       if ((L00003) < 1)
                          M         btfsc   STATUS, OV
                          M         goto    L00003
                          M       else
                          M         if ((L00003) > $)
                          M         btfsc   STATUS, OV
                          M         goto    L00003
                          M         else
                          M           if ((L00003) < ($ - 7fh))
                          M         btfsc   STATUS, OV
                          M         goto    L00003
                          M           else
                          M         bov     L00003
                          M           endif
                          M         endif
                          M       endif
                          M     else
                          M         RST?RP
                          M     if (PREV_BANK != 0)
                          M         movlb   0
                          M PREV_BANK = 0
                          M     endif
                          M       if (0      == 0)
000102 A4D8               M         btfss   STATUS, Z
                          M       else
                          M         btfsc   STATUS, Z
                          M       endif
                          M       if ((L00003) < 1)
                          M         goto    L00003
                          M       else
                          M         if ((L00003) > $)
                          M         goto    L00003
                          M         else
                          M           if ((L00003) < ($ - 3ffh))
                          M         goto    L00003
                          M           else
000104 D7EF               M         bra     L00003
                          M           endif
                          M         endif
                          M       endif
                          M     endif
                          M     else
                          M       if (001h <= 255)
                          M         movlw   001h
                          M         CHK?RP  _CONTA
                          M         addwf   _CONTA, F
MPASM 03.50 Released                             T18F4320.ASM   1-26-2005  18:13:38         PAGE 26


LOC  OBJECT CODE     LINE SOURCE TEXT
  VALUE

                          M         BIT?GOTO 0, STATUS, C, L00003
                          M       endif
                          M     endif
                      00140         LABEL?L L00004  
                          M         RST?RP
                          M     if (PREV_BANK != 0)
                          M         movlb   0
                          M PREV_BANK = 0
                          M     endif
                          M     ifdef PM_USED
                          M         LALL
                          M L00004
                          M         XALL
                          M     else
000106                    M L00004
                          M     endif
                      00141         MOVE?CT 000h, _PORTB_7
                          M         CHK?RP  PORTB
                          M     if (((PORTB) > BANKA_END) & ((PORTB) < 0f80h))
                          M       if (((PORTB) & 0f00h) != (PREV_BANK << 8))
                          M         movlb   (PORTB) >> 8
                          M PREV_BANK = (PORTB) >> 8
                          M       endif
                          M     endif
                          M     if (((000h) & 1) == 1)
                          M         bsf     PORTB,  007h
                          M     else
000106 9E81               M         bcf     PORTB,  007h
                          M     endif
                      00142         PAUSE?C 007D0h
                          M     if (high (007D0h) == 0)
                          M         MOVE?CA 007D0h
                          M         L?CALL  PAUSE
                          M     else
                          M         MOVE?CB high (007D0h), R1 + 1
                          M         CHK?RP  R1 + 1
                          M     if (((R1 + 1) > BANKA_END) & ((R1 + 1) < 0f80h))
                          M       if (((R1 + 1) & 0f00h) != (PREV_BANK << 8))
                          M         movlb   (R1 + 1) >> 8
                          M PREV_BANK = (R1 + 1) >> 8
                          M       endif
                          M     endif
                          M     if (low (high (007D0h)) == 0)
                          M         clrf    R1 + 1
                          M     else
000108 0E07               M         movlw   low (high (007D0h))
00010A 6E03               M         movwf   R1 + 1
                          M     endif
                          M         MOVE?CA low (007D0h)
00010C 0ED0               M         movlw   low (low (007D0h))
                          M         L?CALL  PAUSEL
                          M         RST?RP
                          M     if (PREV_BANK != 0)
MPASM 03.50 Released                             T18F4320.ASM   1-26-2005  18:13:38         PAGE 27


LOC  OBJECT CODE     LINE SOURCE TEXT
  VALUE

                          M         movlb   0
                          M PREV_BANK = 0
                          M     endif
                          M 
                          M     if ((PAUSEL) < 1)
                          M         call    PAUSEL
                          M     else
                          M       if ((PAUSEL) > $)
                          M         call    PAUSEL
                          M       else
                          M         if ((PAUSEL) < ($ - 3ffh))
                          M         call    PAUSEL
                          M         else
00010E DF7B               M         rcall   PAUSEL
                          M         endif
                          M       endif
                          M     endif
                          M     endif
                      00143         MOVE?CB 001h, _TEMP
                          M         CHK?RP  _TEMP
                          M     if (((_TEMP) > BANKA_END) & ((_TEMP) < 0f80h))
                          M       if (((_TEMP) & 0f00h) != (PREV_BANK << 8))
                          M         movlb   (_TEMP) >> 8
                          M PREV_BANK = (_TEMP) >> 8
                          M       endif
                          M     endif
                          M     if (low (001h) == 0)
                          M         clrf    _TEMP
                          M     else
000110 0E01               M         movlw   low (001h)
000112 6E1B               M         movwf   _TEMP
                          M     endif
                      00144         MOVE?CB 000h, _CONTA
                          M         CHK?RP  _CONTA
                          M     if (((_CONTA) > BANKA_END) & ((_CONTA) < 0f80h))
                          M       if (((_CONTA) & 0f00h) != (PREV_BANK << 8))
                          M         movlb   (_CONTA) >> 8
                          M PREV_BANK = (_CONTA) >> 8
                          M       endif
                          M     endif
                          M     if (low (000h) == 0)
000114 6A1A               M         clrf    _CONTA
                          M     else
                          M         movlw   low (000h)
                          M         movwf   _CONTA
                          M     endif
                      00145         LABEL?L L00005  
                          M         RST?RP
                          M     if (PREV_BANK != 0)
                          M         movlb   0
                          M PREV_BANK = 0
                          M     endif
                          M     ifdef PM_USED
MPASM 03.50 Released                             T18F4320.ASM   1-26-2005  18:13:38         PAGE 28


LOC  OBJECT CODE     LINE SOURCE TEXT
  VALUE

                          M         LALL
                          M L00005
                          M         XALL
                          M     else
000116                    M L00005
                          M     endif
                      00146         CMPGT?BCL       _CONTA, 007h, L00006
                          M     if (007h < 0ffh)
                          M         CLRWDT?
                          M     ifndef NO_CLRWDT
000116 0004               M         clrwdt
                          M     endif
                          M         MOVE?CA 007h + 1
000118 0E08               M         movlw   low (007h + 1)
                          M         CHK?RP  _CONTA
                          M     if (((_CONTA) > BANKA_END) & ((_CONTA) < 0f80h))
                          M       if (((_CONTA) & 0f00h) != (PREV_BANK << 8))
                          M         movlb   (_CONTA) >> 8
                          M PREV_BANK = (_CONTA) >> 8
                          M       endif
                          M     endif
00011A 5C1A               M         subwf   _CONTA, W
                          M         BIT?GOTO 1, STATUS, C, L00006
                          M     if ($ == (L00006))
                          M         CLRWDT?
                          M     endif
                          M 
                          M     if (((STATUS) > BANKA_END) & ((STATUS) < 0f80h))
                          M         bcf     STATUS, OV
                          M         CHK?RP  STATUS
                          M       if (1      == 0)
                          M         btfss   STATUS, C
                          M       else
                          M         btfsc   STATUS, C
                          M       endif
                          M         bsf     STATUS, OV
                          M         RST?RP
                          M       if ((L00006) < 1)
                          M         btfsc   STATUS, OV
                          M         goto    L00006
                          M       else
                          M         if ((L00006) > $)
                          M         btfsc   STATUS, OV
                          M         goto    L00006
                          M         else
                          M           if ((L00006) < ($ - 7fh))
                          M         btfsc   STATUS, OV
                          M         goto    L00006
                          M           else
                          M         bov     L00006
                          M           endif
                          M         endif
                          M       endif
MPASM 03.50 Released                             T18F4320.ASM   1-26-2005  18:13:38         PAGE 29


LOC  OBJECT CODE     LINE SOURCE TEXT
  VALUE

                          M     else
                          M         RST?RP
                          M     if (PREV_BANK != 0)
                          M         movlb   0
                          M PREV_BANK = 0
                          M     endif
                          M       if (1      == 0)
                          M         btfss   STATUS, C
                          M       else
00011C B0D8               M         btfsc   STATUS, C
                          M       endif
                          M       if ((L00006) < 1)
                          M         goto    L00006
                          M       else
                          M         if ((L00006) > $)
00011E EF9C F000          M         goto    L00006
                          M         else
                          M           if ((L00006) < ($ - 3ffh))
                          M         goto    L00006
                          M           else
                          M         bra     L00006
                          M           endif
                          M         endif
                          M       endif
                          M     endif
                          M     endif
                      00147         MOVE?BB _TEMP, PORTC
000122 C01B FF82          M         movff   _TEMP, PORTC
                      00148         PAUSE?C 007D0h
                          M     if (high (007D0h) == 0)
                          M         MOVE?CA 007D0h
                          M         L?CALL  PAUSE
                          M     else
                          M         MOVE?CB high (007D0h), R1 + 1
                          M         CHK?RP  R1 + 1
                          M     if (((R1 + 1) > BANKA_END) & ((R1 + 1) < 0f80h))
                          M       if (((R1 + 1) & 0f00h) != (PREV_BANK << 8))
                          M         movlb   (R1 + 1) >> 8
                          M PREV_BANK = (R1 + 1) >> 8
                          M       endif
                          M     endif
                          M     if (low (high (007D0h)) == 0)
                          M         clrf    R1 + 1
                          M     else
000126 0E07               M         movlw   low (high (007D0h))
000128 6E03               M         movwf   R1 + 1
                          M     endif
                          M         MOVE?CA low (007D0h)
00012A 0ED0               M         movlw   low (low (007D0h))
                          M         L?CALL  PAUSEL
                          M         RST?RP
                          M     if (PREV_BANK != 0)
                          M         movlb   0
MPASM 03.50 Released                             T18F4320.ASM   1-26-2005  18:13:38         PAGE 30


LOC  OBJECT CODE     LINE SOURCE TEXT
  VALUE

                          M PREV_BANK = 0
                          M     endif
                          M 
                          M     if ((PAUSEL) < 1)
                          M         call    PAUSEL
                          M     else
                          M       if ((PAUSEL) > $)
                          M         call    PAUSEL
                          M       else
                          M         if ((PAUSEL) < ($ - 3ffh))
                          M         call    PAUSEL
                          M         else
00012C DF6C               M         rcall   PAUSEL
                          M         endif
                          M       endif
                          M     endif
                          M     endif
                      00149         SHIFTL?BCB      _TEMP, 001h, _TEMP
                          M     if (001h == 1)
00012E 90D8               M         bcf     STATUS, C
                          M       if (_TEMP == _TEMP)
                          M         CHK?RP  _TEMP
                          M     if (((_TEMP) > BANKA_END) & ((_TEMP) < 0f80h))
                          M       if (((_TEMP) & 0f00h) != (PREV_BANK << 8))
                          M         movlb   (_TEMP) >> 8
                          M PREV_BANK = (_TEMP) >> 8
                          M       endif
                          M     endif
                          M         rlf     _TEMP, F
000130 361B               M         rlcf    _TEMP, F
                          M       else
                          M         CHK?RP  _TEMP
                          M         rlf     _TEMP, W
                          M         MOVE?AB _TEMP
                          M       endif
                          M     else
                          M         MOVE?BW _TEMP, R0
                          M         MOVE?CA 001h
                          M         L?CALL  SHIFTL
                          M         MOVE?AB _TEMP
                          M     endif
                      00150         NEXT?BCL        _CONTA, 001h, L00005
                          M     if (001h == 1)
                          M         CHK?RP  _CONTA
                          M     if (((_CONTA) > BANKA_END) & ((_CONTA) < 0f80h))
                          M       if (((_CONTA) & 0f00h) != (PREV_BANK << 8))
                          M         movlb   (_CONTA) >> 8
                          M PREV_BANK = (_CONTA) >> 8
                          M       endif
                          M     endif
000132 2A1A               M         incf    _CONTA, F
                          M         BIT?GOTO 0, STATUS, Z, L00005
                          M     if ($ == (L00005))
MPASM 03.50 Released                             T18F4320.ASM   1-26-2005  18:13:38         PAGE 31


LOC  OBJECT CODE     LINE SOURCE TEXT
  VALUE

                          M         CLRWDT?
                          M     endif
                          M 
                          M     if (((STATUS) > BANKA_END) & ((STATUS) < 0f80h))
                          M         bcf     STATUS, OV
                          M         CHK?RP  STATUS
                          M       if (0      == 0)
                          M         btfss   STATUS, Z
                          M       else
                          M         btfsc   STATUS, Z
                          M       endif
                          M         bsf     STATUS, OV
                          M         RST?RP
                          M       if ((L00005) < 1)
                          M         btfsc   STATUS, OV
                          M         goto    L00005
                          M       else
                          M         if ((L00005) > $)
                          M         btfsc   STATUS, OV
                          M         goto    L00005
                          M         else
                          M           if ((L00005) < ($ - 7fh))
                          M         btfsc   STATUS, OV
                          M         goto    L00005
                          M           else
                          M         bov     L00005
                          M           endif
                          M         endif
                          M       endif
                          M     else
                          M         RST?RP
                          M     if (PREV_BANK != 0)
                          M         movlb   0
                          M PREV_BANK = 0
                          M     endif
                          M       if (0      == 0)
000134 A4D8               M         btfss   STATUS, Z
                          M       else
                          M         btfsc   STATUS, Z
                          M       endif
                          M       if ((L00005) < 1)
                          M         goto    L00005
                          M       else
                          M         if ((L00005) > $)
                          M         goto    L00005
                          M         else
                          M           if ((L00005) < ($ - 3ffh))
                          M         goto    L00005
                          M           else
000136 D7EF               M         bra     L00005
                          M           endif
                          M         endif
                          M       endif
MPASM 03.50 Released                             T18F4320.ASM   1-26-2005  18:13:38         PAGE 32


LOC  OBJECT CODE     LINE SOURCE TEXT
  VALUE

                          M     endif
                          M     else
                          M       if (001h <= 255)
                          M         movlw   001h
                          M         CHK?RP  _CONTA
                          M         addwf   _CONTA, F
                          M         BIT?GOTO 0, STATUS, C, L00005
                          M       endif
                          M     endif
                      00151         LABEL?L L00006  
                          M         RST?RP
                          M     if (PREV_BANK != 0)
                          M         movlb   0
                          M PREV_BANK = 0
                          M     endif
                          M     ifdef PM_USED
                          M         LALL
                          M L00006
                          M         XALL
                          M     else
000138                    M L00006
                          M     endif
                      00152         MOVE?CT 000h, _PORTC_7
                          M         CHK?RP  PORTC
                          M     if (((PORTC) > BANKA_END) & ((PORTC) < 0f80h))
                          M       if (((PORTC) & 0f00h) != (PREV_BANK << 8))
                          M         movlb   (PORTC) >> 8
                          M PREV_BANK = (PORTC) >> 8
                          M       endif
                          M     endif
                          M     if (((000h) & 1) == 1)
                          M         bsf     PORTC,  007h
                          M     else
000138 9E82               M         bcf     PORTC,  007h
                          M     endif
                      00153         PAUSE?C 007D0h
                          M     if (high (007D0h) == 0)
                          M         MOVE?CA 007D0h
                          M         L?CALL  PAUSE
                          M     else
                          M         MOVE?CB high (007D0h), R1 + 1
                          M         CHK?RP  R1 + 1
                          M     if (((R1 + 1) > BANKA_END) & ((R1 + 1) < 0f80h))
                          M       if (((R1 + 1) & 0f00h) != (PREV_BANK << 8))
                          M         movlb   (R1 + 1) >> 8
                          M PREV_BANK = (R1 + 1) >> 8
                          M       endif
                          M     endif
                          M     if (low (high (007D0h)) == 0)
                          M         clrf    R1 + 1
                          M     else
00013A 0E07               M         movlw   low (high (007D0h))
00013C 6E03               M         movwf   R1 + 1
MPASM 03.50 Released                             T18F4320.ASM   1-26-2005  18:13:38         PAGE 33


LOC  OBJECT CODE     LINE SOURCE TEXT
  VALUE

                          M     endif
                          M         MOVE?CA low (007D0h)
00013E 0ED0               M         movlw   low (low (007D0h))
                          M         L?CALL  PAUSEL
                          M         RST?RP
                          M     if (PREV_BANK != 0)
                          M         movlb   0
                          M PREV_BANK = 0
                          M     endif
                          M 
                          M     if ((PAUSEL) < 1)
                          M         call    PAUSEL
                          M     else
                          M       if ((PAUSEL) > $)
                          M         call    PAUSEL
                          M       else
                          M         if ((PAUSEL) < ($ - 3ffh))
                          M         call    PAUSEL
                          M         else
000140 DF62               M         rcall   PAUSEL
                          M         endif
                          M       endif
                          M     endif
                          M     endif
                      00154         MOVE?CB 001h, _TEMP
                          M         CHK?RP  _TEMP
                          M     if (((_TEMP) > BANKA_END) & ((_TEMP) < 0f80h))
                          M       if (((_TEMP) & 0f00h) != (PREV_BANK << 8))
                          M         movlb   (_TEMP) >> 8
                          M PREV_BANK = (_TEMP) >> 8
                          M       endif
                          M     endif
                          M     if (low (001h) == 0)
                          M         clrf    _TEMP
                          M     else
000142 0E01               M         movlw   low (001h)
000144 6E1B               M         movwf   _TEMP
                          M     endif
                      00155         MOVE?CB 000h, _CONTA
                          M         CHK?RP  _CONTA
                          M     if (((_CONTA) > BANKA_END) & ((_CONTA) < 0f80h))
                          M       if (((_CONTA) & 0f00h) != (PREV_BANK << 8))
                          M         movlb   (_CONTA) >> 8
                          M PREV_BANK = (_CONTA) >> 8
                          M       endif
                          M     endif
                          M     if (low (000h) == 0)
000146 6A1A               M         clrf    _CONTA
                          M     else
                          M         movlw   low (000h)
                          M         movwf   _CONTA
                          M     endif
                      00156         LABEL?L L00007  
MPASM 03.50 Released                             T18F4320.ASM   1-26-2005  18:13:38         PAGE 34


LOC  OBJECT CODE     LINE SOURCE TEXT
  VALUE

                          M         RST?RP
                          M     if (PREV_BANK != 0)
                          M         movlb   0
                          M PREV_BANK = 0
                          M     endif
                          M     ifdef PM_USED
                          M         LALL
                          M L00007
                          M         XALL
                          M     else
000148                    M L00007
                          M     endif
                      00157         CMPGT?BCL       _CONTA, 007h, L00008
                          M     if (007h < 0ffh)
                          M         CLRWDT?
                          M     ifndef NO_CLRWDT
000148 0004               M         clrwdt
                          M     endif
                          M         MOVE?CA 007h + 1
00014A 0E08               M         movlw   low (007h + 1)
                          M         CHK?RP  _CONTA
                          M     if (((_CONTA) > BANKA_END) & ((_CONTA) < 0f80h))
                          M       if (((_CONTA) & 0f00h) != (PREV_BANK << 8))
                          M         movlb   (_CONTA) >> 8
                          M PREV_BANK = (_CONTA) >> 8
                          M       endif
                          M     endif
00014C 5C1A               M         subwf   _CONTA, W
                          M         BIT?GOTO 1, STATUS, C, L00008
                          M     if ($ == (L00008))
                          M         CLRWDT?
                          M     endif
                          M 
                          M     if (((STATUS) > BANKA_END) & ((STATUS) < 0f80h))
                          M         bcf     STATUS, OV
                          M         CHK?RP  STATUS
                          M       if (1      == 0)
                          M         btfss   STATUS, C
                          M       else
                          M         btfsc   STATUS, C
                          M       endif
                          M         bsf     STATUS, OV
                          M         RST?RP
                          M       if ((L00008) < 1)
                          M         btfsc   STATUS, OV
                          M         goto    L00008
                          M       else
                          M         if ((L00008) > $)
                          M         btfsc   STATUS, OV
                          M         goto    L00008
                          M         else
                          M           if ((L00008) < ($ - 7fh))
                          M         btfsc   STATUS, OV
MPASM 03.50 Released                             T18F4320.ASM   1-26-2005  18:13:38         PAGE 35


LOC  OBJECT CODE     LINE SOURCE TEXT
  VALUE

                          M         goto    L00008
                          M           else
                          M         bov     L00008
                          M           endif
                          M         endif
                          M       endif
                          M     else
                          M         RST?RP
                          M     if (PREV_BANK != 0)
                          M         movlb   0
                          M PREV_BANK = 0
                          M     endif
                          M       if (1      == 0)
                          M         btfss   STATUS, C
                          M       else
00014E B0D8               M         btfsc   STATUS, C
                          M       endif
                          M       if ((L00008) < 1)
                          M         goto    L00008
                          M       else
                          M         if ((L00008) > $)
000150 EFB5 F000          M         goto    L00008
                          M         else
                          M           if ((L00008) < ($ - 3ffh))
                          M         goto    L00008
                          M           else
                          M         bra     L00008
                          M           endif
                          M         endif
                          M       endif
                          M     endif
                          M     endif
                      00158         MOVE?BB _TEMP, PORTD
000154 C01B FF83          M         movff   _TEMP, PORTD
                      00159         PAUSE?C 007D0h
                          M     if (high (007D0h) == 0)
                          M         MOVE?CA 007D0h
                          M         L?CALL  PAUSE
                          M     else
                          M         MOVE?CB high (007D0h), R1 + 1
                          M         CHK?RP  R1 + 1
                          M     if (((R1 + 1) > BANKA_END) & ((R1 + 1) < 0f80h))
                          M       if (((R1 + 1) & 0f00h) != (PREV_BANK << 8))
                          M         movlb   (R1 + 1) >> 8
                          M PREV_BANK = (R1 + 1) >> 8
                          M       endif
                          M     endif
                          M     if (low (high (007D0h)) == 0)
                          M         clrf    R1 + 1
                          M     else
000158 0E07               M         movlw   low (high (007D0h))
00015A 6E03               M         movwf   R1 + 1
                          M     endif
MPASM 03.50 Released                             T18F4320.ASM   1-26-2005  18:13:38         PAGE 36


LOC  OBJECT CODE     LINE SOURCE TEXT
  VALUE

                          M         MOVE?CA low (007D0h)
00015C 0ED0               M         movlw   low (low (007D0h))
                          M         L?CALL  PAUSEL
                          M         RST?RP
                          M     if (PREV_BANK != 0)
                          M         movlb   0
                          M PREV_BANK = 0
                          M     endif
                          M 
                          M     if ((PAUSEL) < 1)
                          M         call    PAUSEL
                          M     else
                          M       if ((PAUSEL) > $)
                          M         call    PAUSEL
                          M       else
                          M         if ((PAUSEL) < ($ - 3ffh))
                          M         call    PAUSEL
                          M         else
00015E DF53               M         rcall   PAUSEL
                          M         endif
                          M       endif
                          M     endif
                          M     endif
                      00160         SHIFTL?BCB      _TEMP, 001h, _TEMP
                          M     if (001h == 1)
000160 90D8               M         bcf     STATUS, C
                          M       if (_TEMP == _TEMP)
                          M         CHK?RP  _TEMP
                          M     if (((_TEMP) > BANKA_END) & ((_TEMP) < 0f80h))
                          M       if (((_TEMP) & 0f00h) != (PREV_BANK << 8))
                          M         movlb   (_TEMP) >> 8
                          M PREV_BANK = (_TEMP) >> 8
                          M       endif
                          M     endif
                          M         rlf     _TEMP, F
000162 361B               M         rlcf    _TEMP, F
                          M       else
                          M         CHK?RP  _TEMP
                          M         rlf     _TEMP, W
                          M         MOVE?AB _TEMP
                          M       endif
                          M     else
                          M         MOVE?BW _TEMP, R0
                          M         MOVE?CA 001h
                          M         L?CALL  SHIFTL
                          M         MOVE?AB _TEMP
                          M     endif
                      00161         NEXT?BCL        _CONTA, 001h, L00007
                          M     if (001h == 1)
                          M         CHK?RP  _CONTA
                          M     if (((_CONTA) > BANKA_END) & ((_CONTA) < 0f80h))
                          M       if (((_CONTA) & 0f00h) != (PREV_BANK << 8))
                          M         movlb   (_CONTA) >> 8
MPASM 03.50 Released                             T18F4320.ASM   1-26-2005  18:13:38         PAGE 37


LOC  OBJECT CODE     LINE SOURCE TEXT
  VALUE

                          M PREV_BANK = (_CONTA) >> 8
                          M       endif
                          M     endif
000164 2A1A               M         incf    _CONTA, F
                          M         BIT?GOTO 0, STATUS, Z, L00007
                          M     if ($ == (L00007))
                          M         CLRWDT?
                          M     endif
                          M 
                          M     if (((STATUS) > BANKA_END) & ((STATUS) < 0f80h))
                          M         bcf     STATUS, OV
                          M         CHK?RP  STATUS
                          M       if (0      == 0)
                          M         btfss   STATUS, Z
                          M       else
                          M         btfsc   STATUS, Z
                          M       endif
                          M         bsf     STATUS, OV
                          M         RST?RP
                          M       if ((L00007) < 1)
                          M         btfsc   STATUS, OV
                          M         goto    L00007
                          M       else
                          M         if ((L00007) > $)
                          M         btfsc   STATUS, OV
                          M         goto    L00007
                          M         else
                          M           if ((L00007) < ($ - 7fh))
                          M         btfsc   STATUS, OV
                          M         goto    L00007
                          M           else
                          M         bov     L00007
                          M           endif
                          M         endif
                          M       endif
                          M     else
                          M         RST?RP
                          M     if (PREV_BANK != 0)
                          M         movlb   0
                          M PREV_BANK = 0
                          M     endif
                          M       if (0      == 0)
000166 A4D8               M         btfss   STATUS, Z
                          M       else
                          M         btfsc   STATUS, Z
                          M       endif
                          M       if ((L00007) < 1)
                          M         goto    L00007
                          M       else
                          M         if ((L00007) > $)
                          M         goto    L00007
                          M         else
                          M           if ((L00007) < ($ - 3ffh))
MPASM 03.50 Released                             T18F4320.ASM   1-26-2005  18:13:38         PAGE 38


LOC  OBJECT CODE     LINE SOURCE TEXT
  VALUE

                          M         goto    L00007
                          M           else
000168 D7EF               M         bra     L00007
                          M           endif
                          M         endif
                          M       endif
                          M     endif
                          M     else
                          M       if (001h <= 255)
                          M         movlw   001h
                          M         CHK?RP  _CONTA
                          M         addwf   _CONTA, F
                          M         BIT?GOTO 0, STATUS, C, L00007
                          M       endif
                          M     endif
                      00162         LABEL?L L00008  
                          M         RST?RP
                          M     if (PREV_BANK != 0)
                          M         movlb   0
                          M PREV_BANK = 0
                          M     endif
                          M     ifdef PM_USED
                          M         LALL
                          M L00008
                          M         XALL
                          M     else
00016A                    M L00008
                          M     endif
                      00163         MOVE?CT 000h, _PORTD_7
                          M         CHK?RP  PORTD
                          M     if (((PORTD) > BANKA_END) & ((PORTD) < 0f80h))
                          M       if (((PORTD) & 0f00h) != (PREV_BANK << 8))
                          M         movlb   (PORTD) >> 8
                          M PREV_BANK = (PORTD) >> 8
                          M       endif
                          M     endif
                          M     if (((000h) & 1) == 1)
                          M         bsf     PORTD,  007h
                          M     else
00016A 9E83               M         bcf     PORTD,  007h
                          M     endif
                      00164         PAUSE?C 007D0h
                          M     if (high (007D0h) == 0)
                          M         MOVE?CA 007D0h
                          M         L?CALL  PAUSE
                          M     else
                          M         MOVE?CB high (007D0h), R1 + 1
                          M         CHK?RP  R1 + 1
                          M     if (((R1 + 1) > BANKA_END) & ((R1 + 1) < 0f80h))
                          M       if (((R1 + 1) & 0f00h) != (PREV_BANK << 8))
                          M         movlb   (R1 + 1) >> 8
                          M PREV_BANK = (R1 + 1) >> 8
                          M       endif
MPASM 03.50 Released                             T18F4320.ASM   1-26-2005  18:13:38         PAGE 39


LOC  OBJECT CODE     LINE SOURCE TEXT
  VALUE

                          M     endif
                          M     if (low (high (007D0h)) == 0)
                          M         clrf    R1 + 1
                          M     else
00016C 0E07               M         movlw   low (high (007D0h))
00016E 6E03               M         movwf   R1 + 1
                          M     endif
                          M         MOVE?CA low (007D0h)
000170 0ED0               M         movlw   low (low (007D0h))
                          M         L?CALL  PAUSEL
                          M         RST?RP
                          M     if (PREV_BANK != 0)
                          M         movlb   0
                          M PREV_BANK = 0
                          M     endif
                          M 
                          M     if ((PAUSEL) < 1)
                          M         call    PAUSEL
                          M     else
                          M       if ((PAUSEL) > $)
                          M         call    PAUSEL
                          M       else
                          M         if ((PAUSEL) < ($ - 3ffh))
                          M         call    PAUSEL
                          M         else
000172 DF49               M         rcall   PAUSEL
                          M         endif
                          M       endif
                          M     endif
                          M     endif
                      00165         MOVE?CB 001h, _TEMP
                          M         CHK?RP  _TEMP
                          M     if (((_TEMP) > BANKA_END) & ((_TEMP) < 0f80h))
                          M       if (((_TEMP) & 0f00h) != (PREV_BANK << 8))
                          M         movlb   (_TEMP) >> 8
                          M PREV_BANK = (_TEMP) >> 8
                          M       endif
                          M     endif
                          M     if (low (001h) == 0)
                          M         clrf    _TEMP
                          M     else
000174 0E01               M         movlw   low (001h)
000176 6E1B               M         movwf   _TEMP
                          M     endif
                      00166         MOVE?CB 000h, _CONTA
                          M         CHK?RP  _CONTA
                          M     if (((_CONTA) > BANKA_END) & ((_CONTA) < 0f80h))
                          M       if (((_CONTA) & 0f00h) != (PREV_BANK << 8))
                          M         movlb   (_CONTA) >> 8
                          M PREV_BANK = (_CONTA) >> 8
                          M       endif
                          M     endif
                          M     if (low (000h) == 0)
MPASM 03.50 Released                             T18F4320.ASM   1-26-2005  18:13:38         PAGE 40


LOC  OBJECT CODE     LINE SOURCE TEXT
  VALUE

000178 6A1A               M         clrf    _CONTA
                          M     else
                          M         movlw   low (000h)
                          M         movwf   _CONTA
                          M     endif
                      00167         LABEL?L L00009  
                          M         RST?RP
                          M     if (PREV_BANK != 0)
                          M         movlb   0
                          M PREV_BANK = 0
                          M     endif
                          M     ifdef PM_USED
                          M         LALL
                          M L00009
                          M         XALL
                          M     else
00017A                    M L00009
                          M     endif
                      00168         CMPGT?BCL       _CONTA, 002h, L00010
                          M     if (002h < 0ffh)
                          M         CLRWDT?
                          M     ifndef NO_CLRWDT
00017A 0004               M         clrwdt
                          M     endif
                          M         MOVE?CA 002h + 1
00017C 0E03               M         movlw   low (002h + 1)
                          M         CHK?RP  _CONTA
                          M     if (((_CONTA) > BANKA_END) & ((_CONTA) < 0f80h))
                          M       if (((_CONTA) & 0f00h) != (PREV_BANK << 8))
                          M         movlb   (_CONTA) >> 8
                          M PREV_BANK = (_CONTA) >> 8
                          M       endif
                          M     endif
00017E 5C1A               M         subwf   _CONTA, W
                          M         BIT?GOTO 1, STATUS, C, L00010
                          M     if ($ == (L00010))
                          M         CLRWDT?
                          M     endif
                          M 
                          M     if (((STATUS) > BANKA_END) & ((STATUS) < 0f80h))
                          M         bcf     STATUS, OV
                          M         CHK?RP  STATUS
                          M       if (1      == 0)
                          M         btfss   STATUS, C
                          M       else
                          M         btfsc   STATUS, C
                          M       endif
                          M         bsf     STATUS, OV
                          M         RST?RP
                          M       if ((L00010) < 1)
                          M         btfsc   STATUS, OV
                          M         goto    L00010
                          M       else
MPASM 03.50 Released                             T18F4320.ASM   1-26-2005  18:13:38         PAGE 41


LOC  OBJECT CODE     LINE SOURCE TEXT
  VALUE

                          M         if ((L00010) > $)
                          M         btfsc   STATUS, OV
                          M         goto    L00010
                          M         else
                          M           if ((L00010) < ($ - 7fh))
                          M         btfsc   STATUS, OV
                          M         goto    L00010
                          M           else
                          M         bov     L00010
                          M           endif
                          M         endif
                          M       endif
                          M     else
                          M         RST?RP
                          M     if (PREV_BANK != 0)
                          M         movlb   0
                          M PREV_BANK = 0
                          M     endif
                          M       if (1      == 0)
                          M         btfss   STATUS, C
                          M       else
000180 B0D8               M         btfsc   STATUS, C
                          M       endif
                          M       if ((L00010) < 1)
                          M         goto    L00010
                          M       else
                          M         if ((L00010) > $)
000182 EFCE F000          M         goto    L00010
                          M         else
                          M           if ((L00010) < ($ - 3ffh))
                          M         goto    L00010
                          M           else
                          M         bra     L00010
                          M           endif
                          M         endif
                          M       endif
                          M     endif
                          M     endif
                      00169         MOVE?BB _TEMP, PORTE
000186 C01B FF84          M         movff   _TEMP, PORTE
                      00170         PAUSE?C 007D0h
                          M     if (high (007D0h) == 0)
                          M         MOVE?CA 007D0h
                          M         L?CALL  PAUSE
                          M     else
                          M         MOVE?CB high (007D0h), R1 + 1
                          M         CHK?RP  R1 + 1
                          M     if (((R1 + 1) > BANKA_END) & ((R1 + 1) < 0f80h))
                          M       if (((R1 + 1) & 0f00h) != (PREV_BANK << 8))
                          M         movlb   (R1 + 1) >> 8
                          M PREV_BANK = (R1 + 1) >> 8
                          M       endif
                          M     endif
MPASM 03.50 Released                             T18F4320.ASM   1-26-2005  18:13:38         PAGE 42


LOC  OBJECT CODE     LINE SOURCE TEXT
  VALUE

                          M     if (low (high (007D0h)) == 0)
                          M         clrf    R1 + 1
                          M     else
00018A 0E07               M         movlw   low (high (007D0h))
00018C 6E03               M         movwf   R1 + 1
                          M     endif
                          M         MOVE?CA low (007D0h)
00018E 0ED0               M         movlw   low (low (007D0h))
                          M         L?CALL  PAUSEL
                          M         RST?RP
                          M     if (PREV_BANK != 0)
                          M         movlb   0
                          M PREV_BANK = 0
                          M     endif
                          M 
                          M     if ((PAUSEL) < 1)
                          M         call    PAUSEL
                          M     else
                          M       if ((PAUSEL) > $)
                          M         call    PAUSEL
                          M       else
                          M         if ((PAUSEL) < ($ - 3ffh))
                          M         call    PAUSEL
                          M         else
000190 DF3A               M         rcall   PAUSEL
                          M         endif
                          M       endif
                          M     endif
                          M     endif
                      00171         SHIFTL?BCB      _TEMP, 001h, _TEMP
                          M     if (001h == 1)
000192 90D8               M         bcf     STATUS, C
                          M       if (_TEMP == _TEMP)
                          M         CHK?RP  _TEMP
                          M     if (((_TEMP) > BANKA_END) & ((_TEMP) < 0f80h))
                          M       if (((_TEMP) & 0f00h) != (PREV_BANK << 8))
                          M         movlb   (_TEMP) >> 8
                          M PREV_BANK = (_TEMP) >> 8
                          M       endif
                          M     endif
                          M         rlf     _TEMP, F
000194 361B               M         rlcf    _TEMP, F
                          M       else
                          M         CHK?RP  _TEMP
                          M         rlf     _TEMP, W
                          M         MOVE?AB _TEMP
                          M       endif
                          M     else
                          M         MOVE?BW _TEMP, R0
                          M         MOVE?CA 001h
                          M         L?CALL  SHIFTL
                          M         MOVE?AB _TEMP
                          M     endif
MPASM 03.50 Released                             T18F4320.ASM   1-26-2005  18:13:38         PAGE 43


LOC  OBJECT CODE     LINE SOURCE TEXT
  VALUE

                      00172         NEXT?BCL        _CONTA, 001h, L00009
                          M     if (001h == 1)
                          M         CHK?RP  _CONTA
                          M     if (((_CONTA) > BANKA_END) & ((_CONTA) < 0f80h))
                          M       if (((_CONTA) & 0f00h) != (PREV_BANK << 8))
                          M         movlb   (_CONTA) >> 8
                          M PREV_BANK = (_CONTA) >> 8
                          M       endif
                          M     endif
000196 2A1A               M         incf    _CONTA, F
                          M         BIT?GOTO 0, STATUS, Z, L00009
                          M     if ($ == (L00009))
                          M         CLRWDT?
                          M     endif
                          M 
                          M     if (((STATUS) > BANKA_END) & ((STATUS) < 0f80h))
                          M         bcf     STATUS, OV
                          M         CHK?RP  STATUS
                          M       if (0      == 0)
                          M         btfss   STATUS, Z
                          M       else
                          M         btfsc   STATUS, Z
                          M       endif
                          M         bsf     STATUS, OV
                          M         RST?RP
                          M       if ((L00009) < 1)
                          M         btfsc   STATUS, OV
                          M         goto    L00009
                          M       else
                          M         if ((L00009) > $)
                          M         btfsc   STATUS, OV
                          M         goto    L00009
                          M         else
                          M           if ((L00009) < ($ - 7fh))
                          M         btfsc   STATUS, OV
                          M         goto    L00009
                          M           else
                          M         bov     L00009
                          M           endif
                          M         endif
                          M       endif
                          M     else
                          M         RST?RP
                          M     if (PREV_BANK != 0)
                          M         movlb   0
                          M PREV_BANK = 0
                          M     endif
                          M       if (0      == 0)
000198 A4D8               M         btfss   STATUS, Z
                          M       else
                          M         btfsc   STATUS, Z
                          M       endif
                          M       if ((L00009) < 1)
MPASM 03.50 Released                             T18F4320.ASM   1-26-2005  18:13:38         PAGE 44


LOC  OBJECT CODE     LINE SOURCE TEXT
  VALUE

                          M         goto    L00009
                          M       else
                          M         if ((L00009) > $)
                          M         goto    L00009
                          M         else
                          M           if ((L00009) < ($ - 3ffh))
                          M         goto    L00009
                          M           else
00019A D7EF               M         bra     L00009
                          M           endif
                          M         endif
                          M       endif
                          M     endif
                          M     else
                          M       if (001h <= 255)
                          M         movlw   001h
                          M         CHK?RP  _CONTA
                          M         addwf   _CONTA, F
                          M         BIT?GOTO 0, STATUS, C, L00009
                          M       endif
                          M     endif
                      00173         LABEL?L L00010  
                          M         RST?RP
                          M     if (PREV_BANK != 0)
                          M         movlb   0
                          M PREV_BANK = 0
                          M     endif
                          M     ifdef PM_USED
                          M         LALL
                          M L00010
                          M         XALL
                          M     else
00019C                    M L00010
                          M     endif
                      00174         MOVE?CT 000h, _PORTE_2
                          M         CHK?RP  PORTE
                          M     if (((PORTE) > BANKA_END) & ((PORTE) < 0f80h))
                          M       if (((PORTE) & 0f00h) != (PREV_BANK << 8))
                          M         movlb   (PORTE) >> 8
                          M PREV_BANK = (PORTE) >> 8
                          M       endif
                          M     endif
                          M     if (((000h) & 1) == 1)
                          M         bsf     PORTE,  002h
                          M     else
00019C 9484               M         bcf     PORTE,  002h
                          M     endif
                      00175         PAUSE?C 007D0h
                          M     if (high (007D0h) == 0)
                          M         MOVE?CA 007D0h
                          M         L?CALL  PAUSE
                          M     else
                          M         MOVE?CB high (007D0h), R1 + 1
MPASM 03.50 Released                             T18F4320.ASM   1-26-2005  18:13:38         PAGE 45


LOC  OBJECT CODE     LINE SOURCE TEXT
  VALUE

                          M         CHK?RP  R1 + 1
                          M     if (((R1 + 1) > BANKA_END) & ((R1 + 1) < 0f80h))
                          M       if (((R1 + 1) & 0f00h) != (PREV_BANK << 8))
                          M         movlb   (R1 + 1) >> 8
                          M PREV_BANK = (R1 + 1) >> 8
                          M       endif
                          M     endif
                          M     if (low (high (007D0h)) == 0)
                          M         clrf    R1 + 1
                          M     else
00019E 0E07               M         movlw   low (high (007D0h))
0001A0 6E03               M         movwf   R1 + 1
                          M     endif
                          M         MOVE?CA low (007D0h)
0001A2 0ED0               M         movlw   low (low (007D0h))
                          M         L?CALL  PAUSEL
                          M         RST?RP
                          M     if (PREV_BANK != 0)
                          M         movlb   0
                          M PREV_BANK = 0
                          M     endif
                          M 
                          M     if ((PAUSEL) < 1)
                          M         call    PAUSEL
                          M     else
                          M       if ((PAUSEL) > $)
                          M         call    PAUSEL
                          M       else
                          M         if ((PAUSEL) < ($ - 3ffh))
                          M         call    PAUSEL
                          M         else
0001A4 DF30               M         rcall   PAUSEL
                          M         endif
                          M       endif
                          M     endif
                          M     endif
                      00176         GOTO?L  _LOOP
                          M         L?GOTO  _LOOP
                          M     if ($ == (_LOOP))
                          M         CLRWDT?
                          M     endif
                          M 
                          M         RST?RP
                          M     if (PREV_BANK != 0)
                          M         movlb   0
                          M PREV_BANK = 0
                          M     endif
                          M 
                          M     if ((_LOOP) < 1)
                          M         goto    _LOOP
                          M     else
                          M       if ((_LOOP) > $)
                          M         goto    _LOOP
MPASM 03.50 Released                             T18F4320.ASM   1-26-2005  18:13:38         PAGE 46


LOC  OBJECT CODE     LINE SOURCE TEXT
  VALUE

                          M       else
                          M         if ((_LOOP) < ($ - 3ffh))
                          M         goto    _LOOP
                          M         else
0001A6 D77C               M         bra     _LOOP
                          M         endif
                          M       endif
                          M     endif
                      00177 
                      00178         END
MPASM 03.50 Released                             T18F4320.ASM   1-26-2005  18:13:38         PAGE 47


SYMBOL TABLE
  LABEL                             VALUE 

A                                 00000000
ACCESS                            00000000
ACKDT                             00000005
ACKEN                             00000004
ACKSTAT                           00000006
ACQT0                             00000003
ACQT1                             00000004
ACQT2                             00000005
ADCON0                            00000FC2
ADCON1                            00000FC1
ADCON2                            00000FC0
ADCS0                             00000000
ADCS1                             00000001
ADCS2                             00000002
ADC_BITS                          00000008
ADC_CLOCK                         00000003
ADC_SAMPLEUS                      00000032
ADDEN                             00000003
ADFM                              00000007
ADIE                              00000006
ADIF                              00000006
ADIP                              00000006
ADON                              00000000
ADRESH                            00000FC4
ADRESL                            00000FC3
AN0                               00000000
AN1                               00000001
AN10                              00000001
AN11                              00000004
AN12                              00000000
AN2                               00000002
AN3                               00000003
AN4                               00000005
AN5                               00000000
AN6                               00000001
AN7                               00000002
AN8                               00000002
AN9                               00000003
BANK0_END                         000000FF
BANK0_START                       00000080
BANK1_END                         000001FF
BANK1_START                       00000100
BANKA_END                         0000007F
BANKA_START                       00000000
BANKED                            00000001
BCLIE                             00000003
BCLIF                             00000003
BCLIP                             00000003
BF                                00000000
BGST                              00000005
BIT?FLIP                          
BIT?GOTO                          
BIT?R1                            
MPASM 03.50 Released                             T18F4320.ASM   1-26-2005  18:13:38         PAGE 48


SYMBOL TABLE
  LABEL                             VALUE 

BIT?R2                            
BIT?W                             
BLOCK_SIZE                        00000008
BOR                               00000000
BRGH                              00000002
BSR                               00000FE0
BUTTON_PAUSE                      0000000A
C                                 00000000
C1INV                             00000004
C1OUT                             00000006
C2INV                             00000005
C2OUT                             00000007
CCP1                              00000002
CCP1CON                           00000FBD
CCP1IE                            00000002
CCP1IF                            00000002
CCP1IP                            00000002
CCP1M0                            00000000
CCP1M1                            00000001
CCP1M2                            00000002
CCP1M3                            00000003
CCP1X                             00000005
CCP1Y                             00000004
CCP1_BIT                          00000002
CCP1_REG                          00000F82
CCP2                              00000001
CCP2A                             00000003
CCP2CON                           00000FBA
CCP2IE                            00000000
CCP2IF                            00000000
CCP2IP                            00000000
CCP2M0                            00000000
CCP2M1                            00000001
CCP2M2                            00000002
CCP2M3                            00000003
CCP2X                             00000005
CCP2Y                             00000004
CCP2_BIT                          00000001
CCP2_REG                          00000F82
CCPR1H                            00000FBF
CCPR1L                            00000FBE
CCPR2H                            00000FBC
CCPR2L                            00000FBB
CFGS                              00000006
CHK?RP                            
CHS0                              00000002
CHS1                              00000003
CHS2                              00000004
CHS3                              00000005
CIS                               00000003
CK                                00000006
CKE                               00000006
CKP                               00000004
MPASM 03.50 Released                             T18F4320.ASM   1-26-2005  18:13:38         PAGE 49


SYMBOL TABLE
  LABEL                             VALUE 

CLKI                              00000007
CLKO                              00000006
CLRW                              CLRF WREG
CLRWDT?                           
CLRWDT?NOP                        
CM0                               00000000
CM1                               00000001
CM2                               00000002
CMCON                             00000FB4
CMIE                              00000006
CMIF                              00000006
CMIP                              00000006
CMPGT?BCL                         
CREN                              00000004
CS                                00000002
CSRC                              00000007
CVR0                              00000000
CVR1                              00000001
CVR2                              00000002
CVR3                              00000003
CVRCON                            00000FB5
CVREF                             00000004
CVREN                             00000007
CVROE                             00000006
CVRR                              00000005
CVRSS                             00000004
D                                 00000005
DATA_ADDRESS                      00000005
DC                                00000001
DC1B0                             00000004
DC1B1                             00000005
DC2B0                             00000004
DC2B1                             00000005
DDRA                              TRISA
DDRB                              TRISB
DDRC                              TRISC
DDRD                              TRISD
DDRE                              TRISE
DEBUGIN_BIT                       00000000
DEBUGIN_MODE                      00000001
DEBUGIN_REG                       00000F81
DEBUG_BAUD                        00000960
DEBUG_BIT                         00000000
DEBUG_DELAY                       0000019E
DEBUG_MODE                        00000001
DEBUG_REG                         00000F81
DONE                              00000001
DUNN                              00000050
DUNN3                             00000052
DUNNRET                           00000054
DUNN_USED                         00000001
D_A                               00000005
ECCP1M0                           00000000
MPASM 03.50 Released                             T18F4320.ASM   1-26-2005  18:13:38         PAGE 50


SYMBOL TABLE
  LABEL                             VALUE 

ECCP1M1                           00000001
ECCP1M2                           00000002
ECCP1M3                           00000003
ECCPAS                            00000FB6
ECCPAS0                           00000004
ECCPAS1                           00000005
ECCPAS2                           00000006
ECCPASE                           00000007
EDC1B0                            00000004
EDC1B1                            00000005
EEADR                             00000FA9
EECON1                            00000FA6
EECON2                            00000FA7
EEDATA                            00000FA8
EEIE                              00000004
EEIF                              00000004
EEIP                              00000004
EEPGD                             00000007
EEPROM_START                      00F00000
EPWM1M0                           00000006
EPWM1M1                           00000007
FAST                              00000001
FERR                              00000002
FLAGS                             00000012
FLTS                              00000002
FREE                              00000004
FSR0                              00000000
FSR0H                             00000FEA
FSR0L                             00000FE9
FSR1                              00000001
FSR1H                             00000FE2
FSR1L                             00000FE1
FSR2                              00000002
FSR2H                             00000FDA
FSR2L                             00000FD9
GCEN                              00000007
GIE                               00000007
GIEH                              00000007
GIEL                              00000006
GO                                00000001
GOP                               00000013
GOTO?L                            
GO_DONE                           00000001
HSER2_BAUD                        00000960
HSER2_BITS                        00000008
HSER2_RCSTA                       00000090
HSER2_SPBRG                       00000081
HSER2_TXSTA                       00000020
HSER_BAUD                         00000960
HSER_BITS                         00000008
HSER_PORT                         00000001
HSER_RCSTA                        00000090
HSER_SPBRG                        00000081
MPASM 03.50 Released                             T18F4320.ASM   1-26-2005  18:13:38         PAGE 51


SYMBOL TABLE
  LABEL                             VALUE 

HSER_TXSTA                        00000020
I2CFIRSTFLAG                      FLAGS, 2
I2CREADFLAG                       FLAGS, 3
I2CSTOPFLAG                       FLAGS, 5
I2CSTOPSTRFLAG                    FLAGS, 6
I2CWRITEFLAG                      FLAGS, 4
I2C_DAT                           00000005
I2C_READ                          00000002
I2C_START                         00000003
I2C_STOP                          00000004
IBF                               00000007
IBOV                              00000005
IDLEN                             00000007
INDF0                             00000FEF
INDF1                             00000FE7
INDF2                             00000FDF
INIT                              00000056
INT0                              00000000
INT0E                             00000004
INT0F                             00000001
INT0IE                            00000004
INT0IF                            00000001
INT1                              00000001
INT1E                             00000003
INT1F                             00000000
INT1IE                            00000003
INT1IF                            00000000
INT1IP                            00000006
INT1P                             00000006
INT2                              00000002
INT2E                             00000004
INT2F                             00000001
INT2IE                            00000004
INT2IF                            00000001
INT2IP                            00000007
INT2P                             00000007
INTCON                            00000FF2
INTCON2                           00000FF1
INTCON3                           00000FF0
INTEDG0                           00000006
INTEDG1                           00000005
INTEDG2                           00000004
IOFS                              00000002
IPEN                              00000007
IPR1                              00000F9F
IPR2                              00000FA2
IRCF0                             00000004
IRCF1                             00000005
IRCF2                             00000006
IRVST                             00000005
L00001                            000000A6
L00002                            000000C8
L00003                            000000E4
MPASM 03.50 Released                             T18F4320.ASM   1-26-2005  18:13:38         PAGE 52


SYMBOL TABLE
  LABEL                             VALUE 

L00004                            00000106
L00005                            00000116
L00006                            00000138
L00007                            00000148
L00008                            0000016A
L00009                            0000017A
L00010                            0000019C
L?CALL                            
L?GOTO                            
LABEL?L                           
LATA                              00000F89
LATB                              00000F8A
LATC                              00000F8B
LATD                              00000F8C
LATE                              00000F8D
LCALL                             CALL
LCDCDFLAG                         FLAGS, 0
LCDINITFLAG                       FLAGS, 1
LCD_BITS                          00000004
LCD_COMMANDUS                     000007D0
LCD_DATAUS                        00000032
LCD_DBIT                          00000000
LCD_DREG                          00000F80
LCD_EBIT                          00000003
LCD_EREG                          00000F81
LCD_LINES                         00000002
LCD_RSBIT                         00000004
LCD_RSREG                         00000F80
LCD_RWBIT                         00000004
LCD_RWREG                         00000F80
LGOTO                             GOTO
LVDCON                            00000FD2
LVDEN                             00000004
LVDIE                             00000002
LVDIF                             00000002
LVDIN                             00000005
LVDIP                             00000002
LVV0                              00000000
LVV1                              00000001
LVV2                              00000002
LVV3                              00000003
MCLR                              00000003
MOVE?AB                           
MOVE?AT                           
MOVE?AW                           
MOVE?AWW                          
MOVE?BA                           
MOVE?BB                           
MOVE?BT                           
MOVE?BW                           
MOVE?CA                           
MOVE?CB                           
MOVE?CT                           
MPASM 03.50 Released                             T18F4320.ASM   1-26-2005  18:13:38         PAGE 53


SYMBOL TABLE
  LABEL                             VALUE 

MOVE?CW                           
MOVE?TA                           
MOVE?TB                           
MOVE?TT                           
MOVE?TW                           
MOVE?WA                           
MOVE?WB                           
MOVE?WT                           
MOVE?WW                           
MOVE?WWA                          
MOVFP                             MOVFF
MOVPF                             MOVFF
N                                 00000004
NEGW                              NEGF WREG
NEXT?BCL                          
NOT_A                             00000005
NOT_ADDRESS                       00000005
NOT_BOR                           00000000
NOT_DONE                          00000001
NOT_PD                            00000002
NOT_POR                           00000001
NOT_RBPU                          00000007
NOT_RC8                           00000006
NOT_RI                            00000004
NOT_T1RUN                         00000006
NOT_T1SYNC                        00000002
NOT_T3SYNC                        00000002
NOT_TO                            00000003
NOT_TX8                           00000006
NOT_W                             00000002
NOT_WRITE                         00000002
OBF                               00000006
OERR                              00000001
OSC                               20
OSC1                              00000007
OSC2                              00000006
OSCCON                            00000FD3
OSCFIE                            00000007
OSCFIF                            00000007
OSCFIP                            00000007
OSCTUNE                           00000F9B
OSTS                              00000003
OV                                00000003
P                                 00000004
P1A                               00000002
P1B                               00000005
P1C                               00000006
P1D                               00000007
P1M0                              00000006
P1M1                              00000007
PAUSE                             00000004
PAUSE?C                           
PAUSEL                            00000006
MPASM 03.50 Released                             T18F4320.ASM   1-26-2005  18:13:38         PAGE 54


SYMBOL TABLE
  LABEL                             VALUE 

PAUSEUS                           00000020
PAUSEUSL                          00000022
PAUSEUS_USED                      00000001
PAUSE_DELAY                       000003E6
PAUSE_USED                        00000001
PCFG0                             00000000
PCFG1                             00000001
PCFG2                             00000002
PCFG3                             00000003
PCL                               00000FF9
PCLATH                            00000FFA
PCLATU                            00000FFB
PD                                00000002
PDC0                              00000000
PDC1                              00000001
PDC2                              00000002
PDC3                              00000003
PDC4                              00000004
PDC5                              00000005
PDC6                              00000006
PEIE                              00000006
PEN                               00000002
PIE1                              00000F9D
PIE2                              00000FA0
PIR                               00000F9E
PIR1                              00000F9E
PIR2                              00000FA1
PLUSW0                            00000FEB
PLUSW1                            00000FE3
PLUSW2                            00000FDB
POR                               00000001
PORTA                             00000F80
PORTB                             00000F81
PORTC                             00000F82
PORTD                             00000F83
PORTE                             00000F84
POSTDEC0                          00000FED
POSTDEC1                          00000FE5
POSTDEC2                          00000FDD
POSTINC0                          00000FEE
POSTINC1                          00000FE6
POSTINC2                          00000FDE
PR2                               00000FCB
PREINC0                           00000FEC
PREINC1                           00000FE4
PREINC2                           00000FDC
PREV_BANK                         00000000
PRODH                             00000FF4
PRODL                             00000FF3
PRSEN                             00000007
PSA                               00000003
PSP0                              00000000
PSP1                              00000001
MPASM 03.50 Released                             T18F4320.ASM   1-26-2005  18:13:38         PAGE 55


SYMBOL TABLE
  LABEL                             VALUE 

PSP2                              00000002
PSP3                              00000003
PSP4                              00000004
PSP5                              00000005
PSP6                              00000006
PSP7                              00000007
PSPIE                             00000007
PSPIF                             00000007
PSPIP                             00000007
PSPMODE                           00000004
PSSAC0                            00000002
PSSAC1                            00000003
PSSBD0                            00000000
PSSBD1                            00000001
PWM1CON                           00000FB7
R                                 00000002
R0                                00000000
R1                                00000002
R2                                00000004
R3                                00000006
R4                                00000008
R5                                0000000A
R6                                0000000C
R7                                0000000E
R8                                00000010
RA0                               00000000
RA1                               00000001
RA2                               00000002
RA3                               00000003
RA4                               00000004
RA5                               00000005
RA6                               00000006
RA7                               00000007
RAM_BANKS                         00000002
RAM_END                           000001FF
RAM_START                         00000000
RB0                               00000000
RB1                               00000001
RB2                               00000002
RB3                               00000003
RB4                               00000004
RB5                               00000005
RB6                               00000006
RB7                               00000007
RBIE                              00000003
RBIF                              00000000
RBIP                              00000000
RBPU                              00000007
RC0                               00000000
RC1                               00000001
RC2                               00000002
RC3                               00000003
RC4                               00000004
MPASM 03.50 Released                             T18F4320.ASM   1-26-2005  18:13:38         PAGE 56


SYMBOL TABLE
  LABEL                             VALUE 

RC5                               00000005
RC6                               00000006
RC7                               00000007
RC8_9                             00000006
RC9                               00000006
RCD8                              00000000
RCEN                              00000003
RCIE                              00000005
RCIF                              00000005
RCIP                              00000005
RCON                              00000FD0
RCREG                             00000FAE
RCSTA                             00000FAB
RD                                00000000
RD0                               00000000
RD1                               00000001
RD16                              00000007
RD2                               00000002
RD3                               00000003
RD4                               00000004
RD5                               00000005
RD6                               00000006
RD7                               00000007
RE0                               00000000
RE1                               00000001
RE2                               00000002
RE3                               00000003
READ_WRITE                        00000002
RI                                00000004
RM1                               00000014
RM2                               00000015
RR1                               00000016
RR2                               00000017
RS1                               00000018
RS2                               00000019
RSEN                              00000001
RST?RP                            
RX                                00000007
RX9                               00000006
RX9D                              00000000
R_W                               00000002
S                                 00000003
SCK                               00000003
SCL                               00000003
SCS                               00000000
SCS0                              00000000
SCS1                              00000001
SDA                               00000004
SDI                               00000004
SDO                               00000005
SEN                               00000000
SHIFTL                            00000046
SHIFTL?BCB                        
MPASM 03.50 Released                             T18F4320.ASM   1-26-2005  18:13:38         PAGE 57


SYMBOL TABLE
  LABEL                             VALUE 

SHIFTL_USED                       00000001
SMP                               00000007
SPBRG                             00000FAF
SPEN                              00000007
SREN                              00000005
SS                                00000005
SSPADD                            00000FC8
SSPBUF                            00000FC9
SSPCON1                           00000FC6
SSPCON2                           00000FC5
SSPEN                             00000005
SSPIE                             00000003
SSPIF                             00000003
SSPIP                             00000003
SSPM0                             00000000
SSPM1                             00000001
SSPM2                             00000002
SSPM3                             00000003
SSPOV                             00000006
SSPSTAT                           00000FC7
STATUS                            00000FD8
STKFUL                            00000007
STKPTR                            00000FFC
STKUNF                            00000006
SWDTE                             00000000
SWDTEN                            00000000
SYNC                              00000004
T08BIT                            00000006
T0CKI                             00000004
T0CON                             00000FD5
T0CS                              00000005
T0IE                              00000005
T0IF                              00000002
T0IP                              00000002
T0PS0                             00000000
T0PS1                             00000001
T0PS2                             00000002
T0SE                              00000004
T1CKI                             00000000
T1CKPS0                           00000004
T1CKPS1                           00000005
T1CON                             00000FCD
T1INSYNC                          00000002
T1OSCEN                           00000003
T1OSI                             00000001
T1OSO                             00000000
T1RUN                             00000006
T1SYNC                            00000002
T2CKPS0                           00000000
T2CKPS1                           00000001
T2CON                             00000FCA
T3CCP1                            00000003
T3CCP2                            00000006
MPASM 03.50 Released                             T18F4320.ASM   1-26-2005  18:13:38         PAGE 58


SYMBOL TABLE
  LABEL                             VALUE 

T3CKPS0                           00000004
T3CKPS1                           00000005
T3CON                             00000FB1
T3INSYNC                          00000002
T3SYNC                            00000002
TABLAT                            00000FF5
TABLE?C                           
TBLPTRH                           00000FF7
TBLPTRL                           00000FF6
TBLPTRU                           00000FF8
TMR0H                             00000FD7
TMR0IE                            00000005
TMR0IF                            00000002
TMR0IP                            00000002
TMR0L                             00000FD6
TMR0ON                            00000007
TMR1CS                            00000001
TMR1H                             00000FCF
TMR1IE                            00000000
TMR1IF                            00000000
TMR1IP                            00000000
TMR1L                             00000FCE
TMR1ON                            00000000
TMR2                              00000FCC
TMR2IE                            00000001
TMR2IF                            00000001
TMR2IP                            00000001
TMR2ON                            00000002
TMR3CS                            00000001
TMR3H                             00000FB3
TMR3IE                            00000001
TMR3IF                            00000001
TMR3IP                            00000001
TMR3L                             00000FB2
TMR3ON                            00000000
TO                                00000003
TOSH                              00000FFE
TOSL                              00000FFD
TOSU                              00000FFF
TOUTPS0                           00000003
TOUTPS1                           00000004
TOUTPS2                           00000005
TOUTPS3                           00000006
TRISA                             00000F92
TRISB                             00000F93
TRISC                             00000F94
TRISD                             00000F95
TRISE                             00000F96
TRMT                              00000001
TUN0                              00000000
TUN1                              00000001
TUN2                              00000002
TUN3                              00000003
MPASM 03.50 Released                             T18F4320.ASM   1-26-2005  18:13:38         PAGE 59


SYMBOL TABLE
  LABEL                             VALUE 

TUN4                              00000004
TUN5                              00000005
TX                                00000006
TX8_9                             00000006
TX9                               00000006
TX9D                              00000000
TXD8                              00000000
TXEN                              00000005
TXIE                              00000004
TXIF                              00000004
TXIP                              00000004
TXREG                             00000FAD
TXSTA                             00000FAC
UA                                00000001
VCFG0                             00000004
VCFG1                             00000005
VREFM                             00000002
VREFP                             00000003
W                                 00000000
WCOL                              00000007
WDTCON                            00000FD1
WR                                00000001
WREG                              00000FE8
WREN                              00000002
WRERR                             00000003
Z                                 00000002
_BKBUG_OFF_4L                     000000FF
_BKBUG_ON_4L                      0000007F
_BORV_20_2L                       000000FF
_BORV_27_2L                       000000FB
_BORV_42_2L                       000000F7
_BORV_45_2L                       000000F3
_BOR_OFF_2L                       000000FD
_BOR_ON_2L                        000000FF
_CCP2MX_B3_3H                     000000FE
_CCP2MX_C1_3H                     000000FF
_CCP2MX_OFF_3H                    000000FE
_CCP2MX_ON_3H                     000000FF
_CONFIG1H                         00300001
_CONFIG2H                         00300003
_CONFIG2L                         00300002
_CONFIG3H                         00300005
_CONFIG4L                         00300006
_CONFIG5H                         00300009
_CONFIG5L                         00300008
_CONFIG6H                         0030000B
_CONFIG6L                         0030000A
_CONFIG7H                         0030000D
_CONFIG7L                         0030000C
_CONTA                            0000001A
_CP0_OFF_5L                       000000FF
_CP0_ON_5L                        000000FE
_CP1_OFF_5L                       000000FF
MPASM 03.50 Released                             T18F4320.ASM   1-26-2005  18:13:38         PAGE 60


SYMBOL TABLE
  LABEL                             VALUE 

_CP1_ON_5L                        000000FD
_CP2_OFF_5L                       000000FF
_CP2_ON_5L                        000000FB
_CP3_OFF_5L                       000000FF
_CP3_ON_5L                        000000F7
_CPB_OFF_5H                       000000FF
_CPB_ON_5H                        000000BF
_CPD_OFF_5H                       000000FF
_CPD_ON_5H                        0000007F
_DEBUG_OFF_4L                     000000FF
_DEBUG_ON_4L                      0000007F
_DEVID1                           003FFFFE
_DEVID2                           003FFFFF
_EBTR0_OFF_7L                     000000FF
_EBTR0_ON_7L                      000000FE
_EBTR1_OFF_7L                     000000FF
_EBTR1_ON_7L                      000000FD
_EBTR2_OFF_7L                     000000FF
_EBTR2_ON_7L                      000000FB
_EBTR3_OFF_7L                     000000FF
_EBTR3_ON_7L                      000000F7
_EBTRB_OFF_7H                     000000FF
_EBTRB_ON_7H                      000000BF
_ECIO6_OSC_1H                     000000F5
_ECIO_OSC_1H                      000000F5
_EC_OSC_1H                        000000F4
_FSCMEN_OFF_1H                    000000BF
_FSCMEN_ON_1H                     000000FF
_HSPLL_OSC_1H                     000000F6
_HS_OSC_1H                        000000F2
_IDLOC0                           00200000
_IDLOC1                           00200001
_IDLOC2                           00200002
_IDLOC3                           00200003
_IDLOC4                           00200004
_IDLOC5                           00200005
_IDLOC6                           00200006
_IDLOC7                           00200007
_IESO_OFF_1H                      0000007F
_IESO_ON_1H                       000000FF
_INTIO1_OSC_1H                    000000F9
_INTIO2_OSC_1H                    000000F8
_INTIO67_OSC_1H                   000000F8
_INTIO7_OSC_1H                    000000F9
_LOOP                             000000A0
_LP_OSC_1H                        000000F0
_LVP_OFF_4L                       000000FB
_LVP_ON_4L                        000000FF
_MCLRE_OFF_3H                     0000007F
_MCLRE_ON_3H                      000000FF
_PBAD_ANA_3H                      000000FF
_PBAD_DIG_3H                      000000FD
_PORTA_0                          PORTA, 000h
MPASM 03.50 Released                             T18F4320.ASM   1-26-2005  18:13:38         PAGE 61


SYMBOL TABLE
  LABEL                             VALUE 

_PORTA_1                          PORTA, 001h
_PORTA_2                          PORTA, 002h
_PORTA_3                          PORTA, 003h
_PORTA_5                          PORTA, 005h
_PORTB_0                          PORTB, 000h
_PORTB_1                          PORTB, 001h
_PORTB_2                          PORTB, 002h
_PORTB_3                          PORTB, 003h
_PORTB_4                          PORTB, 004h
_PORTB_5                          PORTB, 005h
_PORTB_6                          PORTB, 006h
_PORTB_7                          PORTB, 007h
_PORTC_0                          PORTC, 000h
_PORTC_1                          PORTC, 001h
_PORTC_2                          PORTC, 002h
_PORTC_3                          PORTC, 003h
_PORTC_4                          PORTC, 004h
_PORTC_5                          PORTC, 005h
_PORTC_6                          PORTC, 006h
_PORTC_7                          PORTC, 007h
_PORTD_0                          PORTD, 000h
_PORTD_1                          PORTD, 001h
_PORTD_2                          PORTD, 002h
_PORTD_3                          PORTD, 003h
_PORTD_4                          PORTD, 004h
_PORTD_5                          PORTD, 005h
_PORTD_6                          PORTD, 006h
_PORTD_7                          PORTD, 007h
_PORTE_0                          PORTE, 000h
_PORTE_1                          PORTE, 001h
_PORTE_2                          PORTE, 002h
_PORTH                            00000F82
_PORTL                            00000F81
_PWRT_OFF_2L                      000000FF
_PWRT_ON_2L                       000000FE
_RCIO6_OSC_1H                     000000F7
_RCIO_OSC_1H                      000000F7
_RC_OSC_1H                        000000FF
_STVR_OFF_4L                      000000FE
_STVR_ON_4L                       000000FF
_TEMP                             0000001B
_TRISH                            00000F94
_TRISL                            00000F93
_USED                             00000001
_WDTPS_128_2H                     000000EF
_WDTPS_16K_2H                     000000FD
_WDTPS_16_2H                      000000E9
_WDTPS_1K_2H                      000000F5
_WDTPS_1_2H                       000000E1
_WDTPS_256_2H                     000000F1
_WDTPS_2K_2H                      000000F7
_WDTPS_2_2H                       000000E3
_WDTPS_32K_2H                     000000FF
MPASM 03.50 Released                             T18F4320.ASM   1-26-2005  18:13:38         PAGE 62


SYMBOL TABLE
  LABEL                             VALUE 

_WDTPS_32_2H                      000000EB
_WDTPS_4K_2H                      000000F9
_WDTPS_4_2H                       000000E5
_WDTPS_512_2H                     000000F3
_WDTPS_64_2H                      000000ED
_WDTPS_8K_2H                      000000FB
_WDTPS_8_2H                       000000E7
_WDT_OFF_2H                       000000FE
_WDT_ON_2H                        000000FF
_WRT0_OFF_6L                      000000FF
_WRT0_ON_6L                       000000FE
_WRT1_OFF_6L                      000000FF
_WRT1_ON_6L                       000000FD
_WRT2_OFF_6L                      000000FF
_WRT2_ON_6L                       000000FB
_WRT3_OFF_6L                      000000FF
_WRT3_ON_6L                       000000F7
_WRTB_OFF_6H                      000000FF
_WRTB_ON_6H                       000000BF
_WRTC_OFF_6H                      000000FF
_WRTC_ON_6H                       000000DF
_WRTD_OFF_6H                      000000FF
_WRTD_ON_6H                       0000007F
_XT_OSC_1H                        000000F1
__18F4320                         00000001
clrw                              clrf WREG
lcall                             call
lgoto                             goto
main                              00000056
movfp                             movff
movpf                             movff
negw                              negf WREG
pauseloop                         00000008
pauseush                          00000038
pauseusloop                       0000002E
pauseusloop0                      0000002C
rlf                               
rrf                               
shiftlloop                        00000040


MEMORY USAGE MAP ('X' = Used,  '-' = Unused)

0000 : XXXXXXXXXXXXXXXX XXXXXXXXXXXXXXXX XXXXXXXXXXXXXXXX XXXXXXXXXXXXXXXX
0040 : XXXXXXXXXXXXXXXX XXXXXXXXXXXXXXXX XXXXXXXXXXXXXXXX XXXXXXXXXXXXXXXX
0080 : XXXXXXXXXXXXXXXX XXXXXXXXXXXXXXXX XXXXXXXXXXXXXXXX XXXXXXXXXXXXXXXX
MPASM 03.50 Released                             T18F4320.ASM   1-26-2005  18:13:38         PAGE 63


MEMORY USAGE MAP ('X' = Used,  '-' = Unused)


00C0 : XXXXXXXXXXXXXXXX XXXXXXXXXXXXXXXX XXXXXXXXXXXXXXXX XXXXXXXXXXXXXXXX
0100 : XXXXXXXXXXXXXXXX XXXXXXXXXXXXXXXX XXXXXXXXXXXXXXXX XXXXXXXXXXXXXXXX
0140 : XXXXXXXXXXXXXXXX XXXXXXXXXXXXXXXX XXXXXXXXXXXXXXXX XXXXXXXXXXXXXXXX
0180 : XXXXXXXXXXXXXXXX XXXXXXXXXXXXXXXX XXXXXXXX-------- ----------------
0000 : XXXXXXXX-------- ---------------- ---------------- ----------------

All other memory blocks unused.

Program Memory Bytes Used:   432
Program Memory Bytes Free:  7760


Errors   :     0
Warnings :     0 reported,     0 suppressed
Messages :     0 reported,     0 suppressed

